Archive member included because of file (symbol)

c:/mcbuilder/resources/tools/arm-elf/bin/../lib/gcc/arm-elf/4.2.2/interwork\libgcc.a(_udivsi3.o)
                              C:\mcbuilder\cores\makecontroller\core\lwip\src\core\ipv4\inet.o (__udivsi3)
c:/mcbuilder/resources/tools/arm-elf/bin/../lib/gcc/arm-elf/4.2.2/interwork\libgcc.a(_divsi3.o)
                              C:\mcbuilder\cores\makecontroller\core\makingthings\serial.o (__divsi3)
c:/mcbuilder/resources/tools/arm-elf/bin/../lib/gcc/arm-elf/4.2.2/interwork\libgcc.a(_umodsi3.o)
                              C:\mcbuilder\cores\makecontroller\core\lwip\src\core\ipv4\inet.o (__umodsi3)
c:/mcbuilder/resources/tools/arm-elf/bin/../lib/gcc/arm-elf/4.2.2/interwork\libgcc.a(_modsi3.o)
                              C:\mcbuilder\cores\makecontroller\core\makingthings\serial.o (__modsi3)
c:/mcbuilder/resources/tools/arm-elf/bin/../lib/gcc/arm-elf/4.2.2/interwork\libgcc.a(_dvmd_tls.o)
                              c:/mcbuilder/resources/tools/arm-elf/bin/../lib/gcc/arm-elf/4.2.2/interwork\libgcc.a(_udivsi3.o) (__div0)
c:/mcbuilder/resources/tools/arm-elf/bin/../lib/gcc/arm-elf/4.2.2/../../../../arm-elf/lib/interwork\libc.a(lib_a-atoi.o)
                              C:\mcbuilder\cores\makecontroller\libraries\webserver\webserver.o (atoi)
c:/mcbuilder/resources/tools/arm-elf/bin/../lib/gcc/arm-elf/4.2.2/../../../../arm-elf/lib/interwork\libc.a(lib_a-ctype_.o)
                              C:\mcbuilder\cores\makecontroller\libraries\webserver\webserver.o (__ctype_ptr)
c:/mcbuilder/resources/tools/arm-elf/bin/../lib/gcc/arm-elf/4.2.2/../../../../arm-elf/lib/interwork\libc.a(lib_a-memcpy.o)
                              C:\mcbuilder\cores\makecontroller\core\freertos\queue.o (memcpy)
c:/mcbuilder/resources/tools/arm-elf/bin/../lib/gcc/arm-elf/4.2.2/../../../../arm-elf/lib/interwork\libc.a(lib_a-memset.o)
                              C:\mcbuilder\cores\makecontroller\core\freertos\tasks.o (memset)
c:/mcbuilder/resources/tools/arm-elf/bin/../lib/gcc/arm-elf/4.2.2/../../../../arm-elf/lib/interwork\libc.a(lib_a-snprintf.o)
                              C:\mcbuilder\cores\makecontroller\libraries\webserver\webserver.o (snprintf)
c:/mcbuilder/resources/tools/arm-elf/bin/../lib/gcc/arm-elf/4.2.2/../../../../arm-elf/lib/interwork\libc.a(lib_a-sprintf.o)
                              C:\mcbuilder\cores\makecontroller\core\freertos\tasks.o (sprintf)
c:/mcbuilder/resources/tools/arm-elf/bin/../lib/gcc/arm-elf/4.2.2/../../../../arm-elf/lib/interwork\libc.a(lib_a-sscanf.o)
                              C:\mcbuilder\cores\makecontroller\core\makingthings\network.o (sscanf)
c:/mcbuilder/resources/tools/arm-elf/bin/../lib/gcc/arm-elf/4.2.2/../../../../arm-elf/lib/interwork\libc.a(lib_a-strcat.o)
                              C:\mcbuilder\cores\makecontroller\libraries\webserver\webserver.o (strcat)
c:/mcbuilder/resources/tools/arm-elf/bin/../lib/gcc/arm-elf/4.2.2/../../../../arm-elf/lib/interwork\libc.a(lib_a-strchr.o)
                              C:\mcbuilder\cores\makecontroller\libraries\webserver\webserver.o (strchr)
c:/mcbuilder/resources/tools/arm-elf/bin/../lib/gcc/arm-elf/4.2.2/../../../../arm-elf/lib/interwork\libc.a(lib_a-strcmp.o)
                              C:\mcbuilder\cores\makecontroller\core\makingthings\rtos.o (strcmp)
c:/mcbuilder/resources/tools/arm-elf/bin/../lib/gcc/arm-elf/4.2.2/../../../../arm-elf/lib/interwork\libc.a(lib_a-strcpy.o)
                              C:\mcbuilder\cores\makecontroller\libraries\webserver\webserver.o (strcpy)
c:/mcbuilder/resources/tools/arm-elf/bin/../lib/gcc/arm-elf/4.2.2/../../../../arm-elf/lib/interwork\libc.a(lib_a-strlen.o)
                              C:\mcbuilder\cores\makecontroller\libraries\webserver\webserver.o (strlen)
c:/mcbuilder/resources/tools/arm-elf/bin/../lib/gcc/arm-elf/4.2.2/../../../../arm-elf/lib/interwork\libc.a(lib_a-strncmp.o)
                              C:\mcbuilder\cores\makecontroller\libraries\webserver\webserver.o (strncmp)
c:/mcbuilder/resources/tools/arm-elf/bin/../lib/gcc/arm-elf/4.2.2/../../../../arm-elf/lib/interwork\libc.a(lib_a-strncpy.o)
                              C:\mcbuilder\cores\makecontroller\core\freertos\tasks.o (strncpy)
c:/mcbuilder/resources/tools/arm-elf/bin/../lib/gcc/arm-elf/4.2.2/../../../../arm-elf/lib/interwork\libc.a(lib_a-strtol.o)
                              c:/mcbuilder/resources/tools/arm-elf/bin/../lib/gcc/arm-elf/4.2.2/../../../../arm-elf/lib/interwork\libc.a(lib_a-atoi.o) (_strtol_r)
c:/mcbuilder/resources/tools/arm-elf/bin/../lib/gcc/arm-elf/4.2.2/../../../../arm-elf/lib/interwork\libc.a(lib_a-vfprintf.o)
                              c:/mcbuilder/resources/tools/arm-elf/bin/../lib/gcc/arm-elf/4.2.2/../../../../arm-elf/lib/interwork\libc.a(lib_a-snprintf.o) (_vfprintf_r)
c:/mcbuilder/resources/tools/arm-elf/bin/../lib/gcc/arm-elf/4.2.2/../../../../arm-elf/lib/interwork\libc.a(lib_a-vfscanf.o)
                              c:/mcbuilder/resources/tools/arm-elf/bin/../lib/gcc/arm-elf/4.2.2/../../../../arm-elf/lib/interwork\libc.a(lib_a-sscanf.o) (__svfscanf_r)
c:/mcbuilder/resources/tools/arm-elf/bin/../lib/gcc/arm-elf/4.2.2/../../../../arm-elf/lib/interwork\libc.a(lib_a-wsetup.o)
                              c:/mcbuilder/resources/tools/arm-elf/bin/../lib/gcc/arm-elf/4.2.2/../../../../arm-elf/lib/interwork\libc.a(lib_a-vfprintf.o) (__swsetup_r)
c:/mcbuilder/resources/tools/arm-elf/bin/../lib/gcc/arm-elf/4.2.2/../../../../arm-elf/lib/interwork\libc.a(lib_a-dtoa.o)
                              c:/mcbuilder/resources/tools/arm-elf/bin/../lib/gcc/arm-elf/4.2.2/../../../../arm-elf/lib/interwork\libc.a(lib_a-vfprintf.o) (_dtoa_r)
c:/mcbuilder/resources/tools/arm-elf/bin/../lib/gcc/arm-elf/4.2.2/../../../../arm-elf/lib/interwork\libc.a(lib_a-fflush.o)
                              c:/mcbuilder/resources/tools/arm-elf/bin/../lib/gcc/arm-elf/4.2.2/../../../../arm-elf/lib/interwork\libc.a(lib_a-vfprintf.o) (_fflush_r)
c:/mcbuilder/resources/tools/arm-elf/bin/../lib/gcc/arm-elf/4.2.2/../../../../arm-elf/lib/interwork\libc.a(lib_a-findfp.o)
                              c:/mcbuilder/resources/tools/arm-elf/bin/../lib/gcc/arm-elf/4.2.2/../../../../arm-elf/lib/interwork\libc.a(lib_a-vfprintf.o) (__sinit)
c:/mcbuilder/resources/tools/arm-elf/bin/../lib/gcc/arm-elf/4.2.2/../../../../arm-elf/lib/interwork\libc.a(lib_a-fread.o)
                              c:/mcbuilder/resources/tools/arm-elf/bin/../lib/gcc/arm-elf/4.2.2/../../../../arm-elf/lib/interwork\libc.a(lib_a-vfscanf.o) (fread)
c:/mcbuilder/resources/tools/arm-elf/bin/../lib/gcc/arm-elf/4.2.2/../../../../arm-elf/lib/interwork\libc.a(lib_a-freer.o)
                              c:/mcbuilder/resources/tools/arm-elf/bin/../lib/gcc/arm-elf/4.2.2/../../../../arm-elf/lib/interwork\libc.a(lib_a-wsetup.o) (_free_r)
c:/mcbuilder/resources/tools/arm-elf/bin/../lib/gcc/arm-elf/4.2.2/../../../../arm-elf/lib/interwork\libc.a(lib_a-fvwrite.o)
                              c:/mcbuilder/resources/tools/arm-elf/bin/../lib/gcc/arm-elf/4.2.2/../../../../arm-elf/lib/interwork\libc.a(lib_a-vfprintf.o) (__sfvwrite_r)
c:/mcbuilder/resources/tools/arm-elf/bin/../lib/gcc/arm-elf/4.2.2/../../../../arm-elf/lib/interwork\libc.a(lib_a-fwalk.o)
                              c:/mcbuilder/resources/tools/arm-elf/bin/../lib/gcc/arm-elf/4.2.2/../../../../arm-elf/lib/interwork\libc.a(lib_a-fflush.o) (_fwalk_reent)
c:/mcbuilder/resources/tools/arm-elf/bin/../lib/gcc/arm-elf/4.2.2/../../../../arm-elf/lib/interwork\libc.a(lib_a-impure.o)
                              c:/mcbuilder/resources/tools/arm-elf/bin/../lib/gcc/arm-elf/4.2.2/../../../../arm-elf/lib/interwork\libc.a(lib_a-snprintf.o) (_impure_ptr)
c:/mcbuilder/resources/tools/arm-elf/bin/../lib/gcc/arm-elf/4.2.2/../../../../arm-elf/lib/interwork\libc.a(lib_a-iswspace.o)
                              c:/mcbuilder/resources/tools/arm-elf/bin/../lib/gcc/arm-elf/4.2.2/../../../../arm-elf/lib/interwork\libc.a(lib_a-vfscanf.o) (iswspace)
c:/mcbuilder/resources/tools/arm-elf/bin/../lib/gcc/arm-elf/4.2.2/../../../../arm-elf/lib/interwork\libc.a(lib_a-locale.o)
                              c:/mcbuilder/resources/tools/arm-elf/bin/../lib/gcc/arm-elf/4.2.2/../../../../arm-elf/lib/interwork\libc.a(lib_a-vfprintf.o) (_localeconv_r)
c:/mcbuilder/resources/tools/arm-elf/bin/../lib/gcc/arm-elf/4.2.2/../../../../arm-elf/lib/interwork\libc.a(lib_a-makebuf.o)
                              c:/mcbuilder/resources/tools/arm-elf/bin/../lib/gcc/arm-elf/4.2.2/../../../../arm-elf/lib/interwork\libc.a(lib_a-wsetup.o) (__smakebuf_r)
c:/mcbuilder/resources/tools/arm-elf/bin/../lib/gcc/arm-elf/4.2.2/../../../../arm-elf/lib/interwork\libc.a(lib_a-mallocr.o)
                              c:/mcbuilder/resources/tools/arm-elf/bin/../lib/gcc/arm-elf/4.2.2/../../../../arm-elf/lib/interwork\libc.a(lib_a-findfp.o) (_malloc_r)
c:/mcbuilder/resources/tools/arm-elf/bin/../lib/gcc/arm-elf/4.2.2/../../../../arm-elf/lib/interwork\libc.a(lib_a-mbrtowc.o)
                              c:/mcbuilder/resources/tools/arm-elf/bin/../lib/gcc/arm-elf/4.2.2/../../../../arm-elf/lib/interwork\libc.a(lib_a-vfscanf.o) (_mbrtowc_r)
c:/mcbuilder/resources/tools/arm-elf/bin/../lib/gcc/arm-elf/4.2.2/../../../../arm-elf/lib/interwork\libc.a(lib_a-mbtowc_r.o)
                              c:/mcbuilder/resources/tools/arm-elf/bin/../lib/gcc/arm-elf/4.2.2/../../../../arm-elf/lib/interwork\libc.a(lib_a-mbrtowc.o) (_mbtowc_r)
c:/mcbuilder/resources/tools/arm-elf/bin/../lib/gcc/arm-elf/4.2.2/../../../../arm-elf/lib/interwork\libc.a(lib_a-memchr.o)
                              c:/mcbuilder/resources/tools/arm-elf/bin/../lib/gcc/arm-elf/4.2.2/../../../../arm-elf/lib/interwork\libc.a(lib_a-vfprintf.o) (memchr)
c:/mcbuilder/resources/tools/arm-elf/bin/../lib/gcc/arm-elf/4.2.2/../../../../arm-elf/lib/interwork\libc.a(lib_a-memmove.o)
                              c:/mcbuilder/resources/tools/arm-elf/bin/../lib/gcc/arm-elf/4.2.2/../../../../arm-elf/lib/interwork\libc.a(lib_a-fvwrite.o) (memmove)
c:/mcbuilder/resources/tools/arm-elf/bin/../lib/gcc/arm-elf/4.2.2/../../../../arm-elf/lib/interwork\libc.a(lib_a-mlock.o)
                              c:/mcbuilder/resources/tools/arm-elf/bin/../lib/gcc/arm-elf/4.2.2/../../../../arm-elf/lib/interwork\libc.a(lib_a-freer.o) (__malloc_lock)
c:/mcbuilder/resources/tools/arm-elf/bin/../lib/gcc/arm-elf/4.2.2/../../../../arm-elf/lib/interwork\libc.a(lib_a-mprec.o)
                              c:/mcbuilder/resources/tools/arm-elf/bin/../lib/gcc/arm-elf/4.2.2/../../../../arm-elf/lib/interwork\libc.a(lib_a-dtoa.o) (_Bfree)
c:/mcbuilder/resources/tools/arm-elf/bin/../lib/gcc/arm-elf/4.2.2/../../../../arm-elf/lib/interwork\libc.a(lib_a-reallocr.o)
                              c:/mcbuilder/resources/tools/arm-elf/bin/../lib/gcc/arm-elf/4.2.2/../../../../arm-elf/lib/interwork\libc.a(lib_a-fvwrite.o) (_realloc_r)
c:/mcbuilder/resources/tools/arm-elf/bin/../lib/gcc/arm-elf/4.2.2/../../../../arm-elf/lib/interwork\libc.a(lib_a-refill.o)
                              c:/mcbuilder/resources/tools/arm-elf/bin/../lib/gcc/arm-elf/4.2.2/../../../../arm-elf/lib/interwork\libc.a(lib_a-vfscanf.o) (__srefill_r)
c:/mcbuilder/resources/tools/arm-elf/bin/../lib/gcc/arm-elf/4.2.2/../../../../arm-elf/lib/interwork\libc.a(lib_a-s_isinfd.o)
                              c:/mcbuilder/resources/tools/arm-elf/bin/../lib/gcc/arm-elf/4.2.2/../../../../arm-elf/lib/interwork\libc.a(lib_a-vfprintf.o) (__isinfd)
c:/mcbuilder/resources/tools/arm-elf/bin/../lib/gcc/arm-elf/4.2.2/../../../../arm-elf/lib/interwork\libc.a(lib_a-s_isnand.o)
                              c:/mcbuilder/resources/tools/arm-elf/bin/../lib/gcc/arm-elf/4.2.2/../../../../arm-elf/lib/interwork\libc.a(lib_a-vfprintf.o) (__isnand)
c:/mcbuilder/resources/tools/arm-elf/bin/../lib/gcc/arm-elf/4.2.2/../../../../arm-elf/lib/interwork\libc.a(lib_a-sccl.o)
                              c:/mcbuilder/resources/tools/arm-elf/bin/../lib/gcc/arm-elf/4.2.2/../../../../arm-elf/lib/interwork\libc.a(lib_a-vfscanf.o) (__sccl)
c:/mcbuilder/resources/tools/arm-elf/bin/../lib/gcc/arm-elf/4.2.2/../../../../arm-elf/lib/interwork\libc.a(lib_a-sf_nan.o)
                              c:/mcbuilder/resources/tools/arm-elf/bin/../lib/gcc/arm-elf/4.2.2/../../../../arm-elf/lib/interwork\libc.a(lib_a-vfscanf.o) (nanf)
c:/mcbuilder/resources/tools/arm-elf/bin/../lib/gcc/arm-elf/4.2.2/../../../../arm-elf/lib/interwork\libc.a(lib_a-stdio.o)
                              c:/mcbuilder/resources/tools/arm-elf/bin/../lib/gcc/arm-elf/4.2.2/../../../../arm-elf/lib/interwork\libc.a(lib_a-findfp.o) (__sclose)
c:/mcbuilder/resources/tools/arm-elf/bin/../lib/gcc/arm-elf/4.2.2/../../../../arm-elf/lib/interwork\libc.a(lib_a-strtod.o)
                              c:/mcbuilder/resources/tools/arm-elf/bin/../lib/gcc/arm-elf/4.2.2/../../../../arm-elf/lib/interwork\libc.a(lib_a-vfscanf.o) (_strtod_r)
c:/mcbuilder/resources/tools/arm-elf/bin/../lib/gcc/arm-elf/4.2.2/../../../../arm-elf/lib/interwork\libc.a(lib_a-strtoul.o)
                              c:/mcbuilder/resources/tools/arm-elf/bin/../lib/gcc/arm-elf/4.2.2/../../../../arm-elf/lib/interwork\libc.a(lib_a-vfscanf.o) (_strtoul_r)
c:/mcbuilder/resources/tools/arm-elf/bin/../lib/gcc/arm-elf/4.2.2/../../../../arm-elf/lib/interwork\libc.a(lib_a-syscalls.o)
                              c:/mcbuilder/resources/tools/arm-elf/bin/../lib/gcc/arm-elf/4.2.2/../../../../arm-elf/lib/interwork\libc.a(lib_a-makebuf.o) (isatty)
c:/mcbuilder/resources/tools/arm-elf/bin/../lib/gcc/arm-elf/4.2.2/../../../../arm-elf/lib/interwork\libc.a(lib_a-ungetc.o)
                              c:/mcbuilder/resources/tools/arm-elf/bin/../lib/gcc/arm-elf/4.2.2/../../../../arm-elf/lib/interwork\libc.a(lib_a-vfscanf.o) (_ungetc_r)
c:/mcbuilder/resources/tools/arm-elf/bin/../lib/gcc/arm-elf/4.2.2/../../../../arm-elf/lib/interwork\libc.a(lib_a-callocr.o)
                              c:/mcbuilder/resources/tools/arm-elf/bin/../lib/gcc/arm-elf/4.2.2/../../../../arm-elf/lib/interwork\libc.a(lib_a-mprec.o) (_calloc_r)
c:/mcbuilder/resources/tools/arm-elf/bin/../lib/gcc/arm-elf/4.2.2/../../../../arm-elf/lib/interwork\libc.a(lib_a-errno.o)
                              c:/mcbuilder/resources/tools/arm-elf/bin/../lib/gcc/arm-elf/4.2.2/../../../../arm-elf/lib/interwork\libc.a(lib_a-syscalls.o) (__errno)
c:/mcbuilder/resources/tools/arm-elf/bin/../lib/gcc/arm-elf/4.2.2/../../../../arm-elf/lib/interwork\libc.a(lib_a-fclose.o)
                              c:/mcbuilder/resources/tools/arm-elf/bin/../lib/gcc/arm-elf/4.2.2/../../../../arm-elf/lib/interwork\libc.a(lib_a-findfp.o) (fclose)
c:/mcbuilder/resources/tools/arm-elf/bin/../lib/gcc/arm-elf/4.2.2/../../../../arm-elf/lib/interwork\libc.a(lib_a-gdtoa-gethex.o)
                              c:/mcbuilder/resources/tools/arm-elf/bin/../lib/gcc/arm-elf/4.2.2/../../../../arm-elf/lib/interwork\libc.a(lib_a-strtod.o) (__gethex)
c:/mcbuilder/resources/tools/arm-elf/bin/../lib/gcc/arm-elf/4.2.2/../../../../arm-elf/lib/interwork\libc.a(lib_a-gdtoa-hexnan.o)
                              c:/mcbuilder/resources/tools/arm-elf/bin/../lib/gcc/arm-elf/4.2.2/../../../../arm-elf/lib/interwork\libc.a(lib_a-strtod.o) (__hexnan)
c:/mcbuilder/resources/tools/arm-elf/bin/../lib/gcc/arm-elf/4.2.2/interwork\libgcc.a(_addsubdf3.o)
                              c:/mcbuilder/resources/tools/arm-elf/bin/../lib/gcc/arm-elf/4.2.2/../../../../arm-elf/lib/interwork\libc.a(lib_a-dtoa.o) (__subdf3)
c:/mcbuilder/resources/tools/arm-elf/bin/../lib/gcc/arm-elf/4.2.2/interwork\libgcc.a(_muldivdf3.o)
                              c:/mcbuilder/resources/tools/arm-elf/bin/../lib/gcc/arm-elf/4.2.2/../../../../arm-elf/lib/interwork\libc.a(lib_a-dtoa.o) (__muldf3)
c:/mcbuilder/resources/tools/arm-elf/bin/../lib/gcc/arm-elf/4.2.2/interwork\libgcc.a(_cmpdf2.o)
                              c:/mcbuilder/resources/tools/arm-elf/bin/../lib/gcc/arm-elf/4.2.2/../../../../arm-elf/lib/interwork\libc.a(lib_a-dtoa.o) (__gtdf2)
c:/mcbuilder/resources/tools/arm-elf/bin/../lib/gcc/arm-elf/4.2.2/interwork\libgcc.a(_fixdfsi.o)
                              c:/mcbuilder/resources/tools/arm-elf/bin/../lib/gcc/arm-elf/4.2.2/../../../../arm-elf/lib/interwork\libc.a(lib_a-dtoa.o) (__fixdfsi)
c:/mcbuilder/resources/tools/arm-elf/bin/../lib/gcc/arm-elf/4.2.2/interwork\libgcc.a(_fixunsdfsi.o)
                              c:/mcbuilder/resources/tools/arm-elf/bin/../lib/gcc/arm-elf/4.2.2/../../../../arm-elf/lib/interwork\libc.a(lib_a-strtod.o) (__fixunsdfsi)
c:/mcbuilder/resources/tools/arm-elf/bin/../lib/gcc/arm-elf/4.2.2/interwork\libgcc.a(_truncdfsf2.o)
                              c:/mcbuilder/resources/tools/arm-elf/bin/../lib/gcc/arm-elf/4.2.2/../../../../arm-elf/lib/interwork\libc.a(lib_a-vfscanf.o) (__truncdfsf2)

Allocating common symbols
Common symbol       size              file

netif_list          0x4               C:\mcbuilder\cores\makecontroller\core\lwip\src\core\netif.o
jitter              0x4               C:\mcbuilder\cores\makecontroller\core\makingthings\fasttimer_isr.o
tcp_active_pcbs     0x4               C:\mcbuilder\cores\makecontroller\core\lwip\src\core\tcp.o
udp_pcbs            0x4               C:\mcbuilder\cores\makecontroller\core\lwip\src\core\udp.o
tcp_ticks           0x4               C:\mcbuilder\cores\makecontroller\core\lwip\src\core\tcp.o
tcp_listen_pcbs     0x4               C:\mcbuilder\cores\makecontroller\core\lwip\src\core\tcp.o
timeReference       0x4               C:\mcbuilder\cores\makecontroller\core\makingthings\fasttimer_isr.o
__hexdig            0x100             c:/mcbuilder/resources/tools/arm-elf/bin/../lib/gcc/arm-elf/4.2.2/../../../../arm-elf/lib/interwork\libc.a(lib_a-gdtoa-gethex.o)
Io                  0x50              C:\mcbuilder\cores\makecontroller\core\makingthings\io.o
tcp_tmp_pcb         0x4               C:\mcbuilder\cores\makecontroller\core\lwip\src\core\tcp.o
Timer               0x2c              C:\mcbuilder\cores\makecontroller\core\makingthings\timer.o
tcp_input_pcb       0x4               C:\mcbuilder\cores\makecontroller\core\lwip\src\core\tcp_in.o
te                  0x4               C:\mcbuilder\cores\makecontroller\core\makingthings\fasttimer_isr.o
Serial              0x60              C:\mcbuilder\cores\makecontroller\core\makingthings\serial.o
System              0x4               C:\mcbuilder\cores\makecontroller\core\makingthings\system.o
tcp_bound_pcbs      0x4               C:\mcbuilder\cores\makecontroller\core\lwip\src\core\tcp.o
FastTimer           0x38              C:\mcbuilder\cores\makecontroller\core\makingthings\fasttimer.o
AnalogIn            0x4               C:\mcbuilder\cores\makecontroller\core\makingthings\analogin.o
Network             0x4               C:\mcbuilder\cores\makecontroller\core\makingthings\network.o
Spi                 0xc               C:\mcbuilder\cores\makecontroller\core\makingthings\spi.o
Pwm                 0x18              C:\mcbuilder\cores\makecontroller\core\makingthings\pwm.o
Network_DnsSemaphore
                    0x4               C:\mcbuilder\cores\makecontroller\core\makingthings\network.o
toggle              0x4               C:\mcbuilder\cores\makecontroller\core\makingthings\main.o
tcp_tw_pcbs         0x4               C:\mcbuilder\cores\makecontroller\core\lwip\src\core\tcp.o
lwip_stats          0x14c             C:\mcbuilder\cores\makecontroller\core\lwip\src\core\stats.o
netif_default       0x4               C:\mcbuilder\cores\makecontroller\core\lwip\src\core\netif.o
Network_Valid       0x4               C:\mcbuilder\cores\makecontroller\core\makingthings\network.o

Memory Configuration

Name             Origin             Length             Attributes
flash            0x00100000         0x00040000
ram              0x00200000         0x0000fa24
*default*        0x00000000         0xffffffff

Linker script and memory map

LOAD C:\mcbuilder\cores\makecontroller\core\freertos\portable\GCC\ARM7_AT91SAM7S\portISR.o
LOAD C:\mcbuilder\cores\makecontroller\core\makingthings\SAM7_EMAC_ISR.o
LOAD C:\mcbuilder\cores\makecontroller\core\makingthings\USBIsr.o
LOAD C:\mcbuilder\cores\makecontroller\core\startup\Cstartup_SAM7.o
LOAD C:\mcbuilder\cores\makecontroller\core\makingthings\analogin_isr.o
LOAD C:\mcbuilder\cores\makecontroller\core\makingthings\fasttimer_isr.o
LOAD C:\mcbuilder\cores\makecontroller\core\makingthings\serial_isr.o
LOAD C:\mcbuilder\cores\makecontroller\core\makingthings\timer_isr.o
LOAD C:\mcbuilder\cores\makecontroller\libraries\appled\appled.o
LOAD C:\mcbuilder\cores\makecontroller\libraries\webserver\webserver.o
LOAD C:\mcbuilder\cores\makecontroller\core\freertos\tasks.o
LOAD C:\mcbuilder\cores\makecontroller\core\freertos\queue.o
LOAD C:\mcbuilder\cores\makecontroller\core\freertos\list.o
LOAD C:\mcbuilder\cores\makecontroller\core\freertos\portable\GCC\ARM7_AT91SAM7S\port.o
LOAD C:\mcbuilder\cores\makecontroller\core\startup\extras.o
LOAD C:\mcbuilder\cores\makecontroller\core\freertos\portable\MemMang\heap_2.o
LOAD C:\mcbuilder\cores\makecontroller\core\makingthings\main.o
LOAD C:\mcbuilder\cores\makecontroller\core\makingthings\eeprom.o
LOAD C:\mcbuilder\cores\makecontroller\core\makingthings\analogin.o
LOAD C:\mcbuilder\cores\makecontroller\core\makingthings\serial.o
LOAD C:\mcbuilder\cores\makecontroller\core\makingthings\pwm.o
LOAD C:\mcbuilder\cores\makecontroller\core\makingthings\spi.o
LOAD C:\mcbuilder\cores\makecontroller\core\makingthings\USB-CDC.o
LOAD C:\mcbuilder\cores\makecontroller\core\makingthings\rtos.o
LOAD C:\mcbuilder\cores\makecontroller\core\makingthings\usb.o
LOAD C:\mcbuilder\cores\makecontroller\core\makingthings\network.o
LOAD C:\mcbuilder\cores\makecontroller\core\makingthings\system.o
LOAD C:\mcbuilder\cores\makecontroller\core\makingthings\io.o
LOAD C:\mcbuilder\cores\makecontroller\core\makingthings\led.o
LOAD C:\mcbuilder\cores\makecontroller\core\makingthings\timer.o
LOAD C:\mcbuilder\cores\makecontroller\core\makingthings\fasttimer.o
LOAD C:\mcbuilder\cores\makecontroller\core\makingthings\debugosc.o
LOAD C:\mcbuilder\cores\makecontroller\core\lwip\src\core\tcp_out.o
LOAD C:\mcbuilder\cores\makecontroller\core\lwip\src\core\ipv4\inet.o
LOAD C:\mcbuilder\cores\makecontroller\core\lwip\src\core\mem.o
LOAD C:\mcbuilder\cores\makecontroller\core\lwip\src\core\memp.o
LOAD C:\mcbuilder\cores\makecontroller\core\lwip\src\core\netif.o
LOAD C:\mcbuilder\cores\makecontroller\core\lwip\src\core\pbuf.o
LOAD C:\mcbuilder\cores\makecontroller\core\lwip\src\core\raw.o
LOAD C:\mcbuilder\cores\makecontroller\core\lwip\src\core\stats.o
LOAD C:\mcbuilder\cores\makecontroller\core\lwip\src\core\sys.o
LOAD C:\mcbuilder\cores\makecontroller\core\lwip\src\core\tcp.o
LOAD C:\mcbuilder\cores\makecontroller\core\lwip\src\core\tcp_in.o
LOAD C:\mcbuilder\cores\makecontroller\core\lwip\src\core\init.o
LOAD C:\mcbuilder\cores\makecontroller\core\lwip\src\core\ipv4\ip.o
LOAD C:\mcbuilder\cores\makecontroller\core\lwip\src\core\ipv4\ip_addr.o
LOAD C:\mcbuilder\cores\makecontroller\core\lwip\src\core\ipv4\icmp.o
LOAD C:\mcbuilder\cores\makecontroller\core\lwip\src\core\ipv4\inet_chksum.o
LOAD C:\mcbuilder\cores\makecontroller\core\lwip\src\core\dhcp.o
LOAD C:\mcbuilder\cores\makecontroller\core\lwip\src\core\dns.o
LOAD C:\mcbuilder\cores\makecontroller\core\lwip\src\api\tcpip.o
LOAD C:\mcbuilder\cores\makecontroller\core\lwip\src\api\api_msg.o
LOAD C:\mcbuilder\cores\makecontroller\core\lwip\src\api\err.o
LOAD C:\mcbuilder\cores\makecontroller\core\lwip\src\api\netbuf.o
LOAD C:\mcbuilder\cores\makecontroller\core\lwip\src\api\api_lib.o
LOAD C:\mcbuilder\cores\makecontroller\core\lwip\src\netif\etharp.o
LOAD C:\mcbuilder\cores\makecontroller\core\lwip\contrib\port\FreeRTOS\AT91SAM7X\sys_arch.o
LOAD C:\mcbuilder\cores\makecontroller\core\lwip\src\netif\ethernetif.o
LOAD C:\mcbuilder\cores\makecontroller\core\makingthings\SAM7_EMAC.o
LOAD C:\mcbuilder\cores\makecontroller\core\lwip\src\core\udp.o
LOAD C:\mcbuilder\cores\makecontroller\core\lwip\src\core\ipv4\ip_frag.o
LOAD C:\mcbuilder\cores\makecontroller\core\makingthings\osc.o
LOAD C:\mcbuilder\cores\makecontroller\core\makingthings\osc_patternmatch.o
LOAD C:\Sync\Desktop\todo\AinToWeb_public\AinToWeb_public.o
LOAD C:\Users\bjepson\AppData\Local\Temp/ccXGDjSg.o
START GROUP
LOAD c:/mcbuilder/resources/tools/arm-elf/bin/../lib/gcc/arm-elf/4.2.2/interwork\libgcc.a
LOAD c:/mcbuilder/resources/tools/arm-elf/bin/../lib/gcc/arm-elf/4.2.2/../../../../arm-elf/lib/interwork\libc.a
END GROUP
                0x0020fffc                __stack_end__ = 0x20fffc
                0x00000000                . = 0x0

startup         0x00100000       0x44
 *(.startup)
 .startup       0x00100000       0x44 C:\Users\bjepson\AppData\Local\Temp/ccXGDjSg.o

prog            0x00100044    0x1c28c
 *(.text)
 .text          0x00100044      0x25c C:\mcbuilder\cores\makecontroller\core\freertos\portable\GCC\ARM7_AT91SAM7S\portISR.o
                0x00100140                vPreemptiveTick
                0x001000fc                vPortExitCritical
                0x001000a0                vPortDisableInterruptsFromThumb
                0x001001f4                swi_handler
                0x00100044                vPortISRStartFirstTask
                0x00100090                vPortDisableAllInterrupts
                0x001000b8                vPortEnableInterruptsFromThumb
                0x001000d0                vPortEnterCritical
 .text          0x001002a0      0x15c C:\mcbuilder\cores\makecontroller\core\makingthings\SAM7_EMAC_ISR.o
                0x00100354                vEMACISR_Wrapper
                0x001002a0                vPassEMACSemaphore
                0x001002b0                vEMACISR_Handler
 .text          0x001003fc        0x0 C:\mcbuilder\cores\makecontroller\core\makingthings\USBIsr.o
 .text          0x001003fc       0x8c C:\mcbuilder\cores\makecontroller\core\startup\Cstartup_SAM7.o
                0x001003fc                AT91F_LowLevelInit
 .text          0x00100488      0x108 C:\mcbuilder\cores\makecontroller\core\makingthings\analogin_isr.o
                0x001004e8                AnalogInIsr_Wrapper
                0x00100488                AnalogInIsr_Handler
 .text          0x00100590      0x1f8 C:\mcbuilder\cores\makecontroller\core\makingthings\fasttimer_isr.o
                0x00100590                DisableFIQFromThumb
                0x001005ac                EnableFIQFromThumb
                0x001005c8                FastTimer_Isr
 .text          0x00100788      0x18c C:\mcbuilder\cores\makecontroller\core\makingthings\serial_isr.o
                0x0010086c                SerialIsr_Wrapper
                0x00100788                SerialIsr_Handler
 .text          0x00100914      0x1ac C:\mcbuilder\cores\makecontroller\core\makingthings\timer_isr.o
                0x00100914                Timer_Isr
 .text          0x00100ac0      0x1cc C:\mcbuilder\cores\makecontroller\libraries\appled\appled.o
                0x00100b5c                AppLed_GetState
                0x00100c24                AppLed_SetState
                0x00100bc0                AppLed_SetActive
                0x00100ac0                AppLed_GetActive
 .text          0x00100c8c      0x668 C:\mcbuilder\cores\makecontroller\libraries\webserver\webserver.o
                0x001010b0                WebServerTask
                0x00101254                WebServer_SetActive
                0x00100d70                WebServer_WriteResponseOkPlain
                0x00100da4                WebServer_WriteBodyEnd
                0x00100c8c                WebServer_GetActive
                0x00100e88                WebServer_WriteBodyStart
                0x00100db8                WebServer_WriteResponseOkHTML
                0x00100c9c                WebServer_SetListenPort
                0x00101050                TestHandler
                0x00100dec                WebServer_GetPostData
                0x00101204                WebServer_Route
                0x00100f2c                WebServer_Demo
                0x00100cac                WebServer_GetListenPort
                0x00100d00                WebServer_ParseFormElements
                0x00100ee4                WebServer_WriteHeader
 .text          0x001012f4      0xc00 C:\mcbuilder\cores\makecontroller\core\freertos\tasks.o
                0x00101584                uxTaskPriorityGet
                0x001012f4                TaskGetTimeouts
                0x00101428                xTaskGetPriority
                0x00101448                xTaskGetName
                0x001018cc                vTaskPrioritySet
                0x00101c38                vTaskEndScheduler
                0x001019cc                vTaskPlaceOnEventList
                0x00101484                GetDelayedTaskList
                0x00101490                GetOverflowDelayedTaskList
                0x001017a0                xTaskResumeFromISR
                0x00101470                GetReadyTaskByPriority
                0x00101438                xTaskGetIDNumber
                0x001014c8                ulTaskEndTrace
                0x0010154c                xTaskGetTickCount
                0x001015ac                xTaskRemoveFromEventList
                0x001014f4                vTaskStartTrace
                0x0010195c                vTaskDelete
                0x00101450                xTaskGetStackAllocated
                0x00101e90                xTaskCheckForTimeOut
                0x0010149c                GetListOfTasksWaitingTermination
                0x00101568                vTaskSuspendAll
                0x00101ee0                usVoidTaskCheckFreeStackSpace
                0x00101814                vTaskResume
                0x0010132c                vTaskSwitchContext
                0x00101874                vTaskSuspend
                0x00101530                uxTaskGetNumberOfTasks
                0x00101620                vTaskIncrementTick
                0x001014a4                GetSuspendedTaskList
                0x00101b8c                vTaskList
                0x00101a88                vTaskDelayUntil
                0x001014ac                xTaskGetCurrentTaskHandle
                0x00101414                usTaskCheckFreeStackSpace
                0x001016d0                xTaskResumeAll
                0x00101e4c                vTaskStartScheduler
                0x00101464                xTaskGetTopUsedPriority
                0x00101408                vTaskMissedYield
                0x00101cc4                xTaskCreate
                0x00101a30                vTaskDelay
                0x001013f0                vTaskSetTimeOutState
 .text          0x00101ef4      0x3ec C:\mcbuilder\cores\makecontroller\core\freertos\queue.o
                0x00101fec                xQueueGenericSendFromISR
                0x00102278                xQueueCreate
                0x00101ef4                vQueueDelete
                0x00102190                xQueueGenericSend
                0x00101f50                xQueueReceiveFromISR
                0x00102098                xQueueGenericReceive
                0x00101f0c                uxQueueMessagesWaiting
 .text          0x001022e0       0x90 C:\mcbuilder\cores\makecontroller\core\freertos\list.o
                0x00102300                vListInsertEnd
                0x00102350                vListRemove
                0x001022f8                vListInitialiseItem
                0x001022e0                vListInitialise
                0x0010231c                vListInsert
 .text          0x00102370       0xe8 C:\mcbuilder\cores\makecontroller\core\freertos\portable\GCC\ARM7_AT91SAM7S\port.o
                0x00102418                xPortStartScheduler
                0x00102414                vPortEndScheduler
                0x00102370                pxPortInitialiseStack
 .text          0x00102458       0x34 C:\mcbuilder\cores\makecontroller\core\startup\extras.o
                0x00102464                _lseek_r
                0x00102484                _fstat_r
                0x00102458                _sbrk_r
                0x0010247c                _read_r
                0x0010245c                _open_r
                0x00102474                _close_r
                0x0010246c                _write_r
 .text          0x0010248c      0x118 C:\mcbuilder\cores\makecontroller\core\freertos\portable\MemMang\heap_2.o
                0x001024c0                vPortFree
                0x001024f0                pvPortMalloc
                0x0010248c                PortFreeMemory
 .text          0x001025a4       0xd0 C:\mcbuilder\cores\makecontroller\core\makingthings\main.o
                0x00102664                MakeStarterTask
                0x001025b8                main
                0x001025a4                vApplicationIdleHook
 .text          0x00102674      0x1e4 C:\mcbuilder\cores\makecontroller\core\makingthings\eeprom.o
                0x001027b0                Eeprom_Write
                0x00102674                Eeprom_GetActive
                0x00102728                Eeprom_Read
                0x00102844                Eeprom_SetActive
 .text          0x00102858      0x394 C:\mcbuilder\cores\makecontroller\core\makingthings\analogin.o
                0x00102af0                AnalogIn_GetValueWait
                0x00102858                AnalogIn_GetActive
                0x00102b5c                AnalogIn_GetValue
                0x00102994                AnalogIn_GetValueMulti
                0x00102a4c                AnalogIn_SetActive
 .text          0x00102bec      0x6c8 C:\mcbuilder\cores\makecontroller\core\makingthings\serial.o
                0x001031fc                Serial_Read
                0x00102c04                Serial_ClearErrors
                0x00102dc8                Serial_GetStopBits
                0x00102ef4                Serial_SetParity
                0x00102bec                Serial_GetActive
                0x00102c28                Serial_GetErrors
                0x00102e4c                Serial_GetBaud
                0x00102d9c                Serial_GetHardwareHandshake
                0x00102f80                Serial_SetBaud
                0x00102fdc                Serial_SetActive
                0x00102f38                Serial_SetBits
                0x00102e78                Serial_SetHardwareHandshake
                0x00102fb8                Serial_GetReadable
                0x00102eb0                Serial_SetStopBits
                0x001031a0                Serial_SetChar
                0x00102c84                Serial_StartBreak
                0x00103128                Serial_GetChar
                0x00103180                Serial_Flush
                0x00103258                Serial_Write
                0x00102ca0                Serial_StopBreak
                0x00102e20                Serial_GetBits
                0x00102df4                Serial_GetParity
 .text          0x001032b4      0x324 C:\mcbuilder\cores\makecontroller\core\makingthings\pwm.o
                0x001033a0                Pwm_GetDividerB
                0x001032f4                Pwm_GetChannelIo
                0x00103368                Pwm_SetDividerB
                0x001032dc                Pwm_Get
                0x00103478                Pwm_Start
                0x001033f4                Pwm_GetClockSource
                0x001032b4                Pwm_Set
                0x00103414                Pwm_SetWaveformProperties
                0x00103320                Pwm_SetDividerA
                0x0010345c                Pwm_GetWaveformProperties
                0x00103354                Pwm_GetDividerA
                0x00103540                Pwm_Stop
                0x001033ac                Pwm_SetClockSource
 .text          0x001035d8      0x2ec C:\mcbuilder\cores\makecontroller\core\makingthings\spi.o
                0x00103784                Spi_Lock
                0x001036e0                Spi_Stop
                0x001035d8                Spi_Configure
                0x0010376c                Spi_Unlock
                0x001037a0                Spi_Start
                0x00103644                Spi_ReadWriteBlock
 .text          0x001038c4        0x0 C:\mcbuilder\cores\makecontroller\core\makingthings\USB-CDC.o
 .text          0x001038c4      0x540 C:\mcbuilder\cores\makecontroller\core\makingthings\rtos.o
                0x00103de4                MallocWait
                0x00103c44                getTaskByName
                0x00103a50                iterateForNextTask
                0x00103928                QueueReceive
                0x001039a0                TaskGetTickCount
                0x00103994                Malloc
                0x00103934                SemaphoreCreate
                0x00103970                QueueDelete
                0x001039f4                iterateByName
                0x00103ad4                iterateByID
                0x00103958                QueueCreate
                0x00103918                SemaphoreTake
                0x001038d8                QueueSendToBackFromISR
                0x001038e4                QueueSendToFrontFromISR
                0x00103900                QueueSendToBack
                0x00103d78                TaskGetRemainingStack
                0x00103c24                getTaskByID
                0x00103dd8                Sleep
                0x001038f0                SemaphoreGive
                0x001038c4                TaskYield
                0x00103d6c                TaskGetPriority
                0x00103988                Free
                0x0010397c                QueueMessagesWaiting
                0x001038c8                SemaphoreGiveFromISR
                0x001039d0                TaskGetCurrent
                0x001039dc                TaskGetStackAllocated
                0x00103d8c                TaskExitCritical
                0x00103d98                TaskEnterCritical
                0x001039ac                TaskSetPriority
                0x00103da4                TaskDelete
                0x00103db0                TaskCreate
                0x001039b8                GetNumberOfTasks
                0x00103a44                TaskGetIDNumber
                0x001039e8                TaskGetName
                0x00103b20                findTask
                0x00103c64                TaskGetNext_internal
                0x00103964                QueueReceiveFromISR
                0x0010390c                QueueSendToFront
                0x001039c4                TaskGetTopPriorityUsed
                0x00103d50                TaskGetNext
 .text          0x00103e04        0x0 C:\mcbuilder\cores\makecontroller\core\makingthings\usb.o
 .text          0x00103e04      0xb68 C:\mcbuilder\cores\makecontroller\core\makingthings\network.o
                0x0010442c                Network_SetActive
                0x00104290                Network_SetMask
                0x00103e50                NetworkOsc_GetTcpOutAddress
                0x0010458c                SocketClose
                0x00103e24                Network_SetPending
                0x001046bc                DatagramSocketSend
                0x00103fe8                Network_Init
                0x00103e98                Network_DhcpStop
                0x001040c0                NetworkOsc_SetUdpSendPort
                0x00104144                NetworkOsc_SetTcpOutAddress
                0x00104500                ServerSocketClose
                0x0010481c                Network_GetActive
                0x00103e5c                NetworkOsc_GetTcpOutPort
                0x00104118                NetworkOsc_SetTcpOutPort
                0x001040ec                NetworkOsc_SetUdpListenPort
                0x00103f5c                Network_GetValid
                0x00104374                Network_DnsGetHostByName
                0x001047cc                ServerSocket
                0x00103e44                Network_GetPending
                0x001047b8                ServerSocketAccept
                0x00103e04                SocketBytesAvailable
                0x0010450c                DatagramSocketReceive
                0x00104250                Network_SetGateway
                0x00103f04                NetworkOsc_GetUdpSendPort
                0x001045b0                SocketRead
                0x001042d0                Network_SetAddress
                0x00104720                DatagramSocket
                0x00104688                SocketReadLine
                0x00103f30                NetworkOsc_GetUdpListenPort
                0x00103eac                Network_DhcpStart
                0x00104840                Network_GetGateway
                0x00103e68                Network_AddressConvert
                0x00104908                Network_GetAddress
                0x001044ec                DatagramSocketClose
                0x00104224                Network_SetDefaults
                0x00103fc4                Network_GetDhcpEnabled
                0x00104800                SocketWrite
                0x00104310                Network_SetDhcpEnabled
                0x0010475c                Socket
                0x0010417c                Network_SetValid
                0x001048a4                Network_GetMask
 .text          0x0010496c      0x230 C:\mcbuilder\cores\makecontroller\core\makingthings\system.o
                0x00104ab8                System_SetName
                0x00104a7c                System_SetActive
                0x0010497c                kill
                0x0010496c                System_GetActive
                0x001049dc                System_SetSamba
                0x00104b84                System_SetReset
                0x00104a70                System_GetFreeMemory
                0x0010498c                System_GetSerialNumber
                0x001049b8                System_SetSerialNumber
                0x00104b08                System_GetName
 .text          0x00104b9c      0x6ec C:\mcbuilder\cores\makecontroller\core\makingthings\io.o
                0x00104f08                Io_GetPortA
                0x00104f1c                Io_SetPortB
                0x00104eec                Io_SetPortA
                0x00104f4c                Io_SetPortAMask
                0x0010512c                Io_GetValueBits
                0x00104ed4                Io_SetPioBits
                0x00104bf8                Io_SetDirection
                0x00104e78                Io_SetValueBits
                0x00104bbc                Io_GetDirection
                0x00104cf8                Io_SetPeripheralB
                0x00104db8                Io_GetPullup
                0x00105150                Io_GetPullupBits
                0x00105174                Io_GetPioBits
                0x00105010                Io_StartBits
                0x00104c50                Io_SetValue
                0x00104eac                Io_SetDirectionBits
                0x00104b9c                Io_GetActive
                0x00104f64                Io_SetPortBMask
                0x00104d28                Io_GetPio
                0x00105210                Io_StopBits
                0x00104f70                Io_GetPortBMask
                0x00104e50                Io_SetPullupBits
                0x00104fa0                Io_Start
                0x00104d64                Io_SetPio
                0x00104c94                Io_GetValue
                0x00104cc8                Io_SetPeripheralA
                0x00105198                Io_GetDirectionBits
                0x001051bc                Io_Stop
                0x00104f38                Io_GetPortB
                0x00104dfc                Io_SetPullup
                0x00104f58                Io_GetPortAMask
 .text          0x00105288       0xf0 C:\mcbuilder\cores\makecontroller\core\makingthings\led.o
                0x00105308                Led_SetState
                0x001052dc                Led_GetState
                0x00105334                Led_SetActive
                0x00105288                Led_GetActive
 .text          0x00105378      0x1c4 C:\mcbuilder\cores\makecontroller\core\makingthings\timer.o
                0x00105498                Timer_Set
                0x00105378                Timer_GetActive
                0x00105430                Timer_Cancel
                0x001053ac                Timer_SetActive
                0x0010538c                Timer_InitializeEntry
 .text          0x0010553c      0x1dc C:\mcbuilder\cores\makecontroller\core\makingthings\fasttimer.o
                0x0010557c                FastTimer_SetActive
                0x0010553c                FastTimer_GetActive
                0x00105608                FastTimer_Cancel
                0x00105670                FastTimer_Set
                0x00105550                FastTimer_InitializeEntry
                0x00105570                FastTimer_SetTime
 .text          0x00105718        0x0 C:\mcbuilder\cores\makecontroller\core\makingthings\debugosc.o
 .text          0x00105718      0xc20 C:\mcbuilder\cores\makecontroller\core\lwip\src\core\tcp_out.o
                0x0010592c                tcp_rst
                0x00106314                tcp_send_ctrl
                0x00105834                tcp_keepalive
                0x00105e7c                tcp_rexmit_rto
                0x001062cc                tcp_write
                0x00105e30                tcp_rexmit
                0x00105a34                tcp_output
                0x00105718                tcp_zero_window_probe
                0x00105ed0                tcp_enqueue
 .text          0x00106338      0x25c C:\mcbuilder\cores\makecontroller\core\lwip\src\core\ipv4\inet.o
                0x0010656c                inet_addr
                0x00106588                ntohl
                0x001063f8                htonl
                0x00106418                inet_aton
                0x001063e8                ntohs
                0x00106338                inet_ntoa
                0x001063d4                htons
 .text          0x00106594      0x3c0 C:\mcbuilder\cores\makecontroller\core\lwip\src\core\mem.o
                0x0010682c                mem_free
                0x001068f4                mem_init
                0x00106594                mem_malloc
                0x00106708                mem_realloc
                0x001066dc                mem_calloc
 .text          0x00106954      0x114 C:\mcbuilder\cores\makecontroller\core\lwip\src\core\memp.o
                0x001069d0                memp_free
                0x00106a08                memp_malloc
                0x00106954                memp_init
 .text          0x00106a68      0x250 C:\mcbuilder\cores\makecontroller\core\lwip\src\core\netif.o
                0x00106ad4                netif_set_netmask
                0x00106c20                netif_add
                0x00106b44                netif_set_ipaddr
                0x00106b1c                netif_set_up
                0x00106af4                netif_set_default
                0x00106b00                netif_set_down
                0x00106bd0                netif_set_addr
                0x00106b10                netif_is_up
                0x00106ab4                netif_set_gw
                0x00106c78                netif_remove
                0x00106a68                netif_find
 .text          0x00106cb8      0x420 C:\mcbuilder\cores\makecontroller\core\lwip\src\core\pbuf.o
                0x00106f54                pbuf_realloc
                0x00106ec8                pbuf_free
                0x00106d40                pbuf_cat
                0x00106e98                pbuf_ref
                0x00106d68                pbuf_copy_partial
                0x00106df0                pbuf_copy
                0x00106fb0                pbuf_alloc
                0x00106d2c                pbuf_clen
                0x00106cb8                pbuf_header
                0x00106eb4                pbuf_chain
                0x00106f28                pbuf_dechain
 .text          0x001070d8      0x1d8 C:\mcbuilder\cores\makecontroller\core\lwip\src\core\raw.o
                0x001070d8                raw_bind
                0x00107224                raw_send
                0x0010718c                raw_sendto
                0x00107234                raw_input
                0x001070f8                raw_connect
                0x00107120                raw_new
                0x00107158                raw_remove
                0x00107118                raw_recv
 .text          0x001072b0        0x0 C:\mcbuilder\cores\makecontroller\core\lwip\src\core\stats.o
 .text          0x001072b0      0x204 C:\mcbuilder\cores\makecontroller\core\lwip\src\core\sys.o
                0x0010742c                sys_msleep
                0x0010731c                sys_timeout
                0x0010744c                sys_mbox_fetch
                0x001073e4                sys_sem_wait_timeout
                0x00107384                sys_sem_wait
                0x001072c4                sys_untimeout
 .text          0x001074b4      0xb38 C:\mcbuilder\cores\makecontroller\core\lwip\src\core\tcp.o
                0x00107558                tcp_next_iss
                0x00107540                tcp_err
                0x00107530                tcp_recv
                0x001079f8                tcp_alloc
                0x0010752c                tcp_arg
                0x00107df8                tcp_close
                0x001075a0                tcp_recved
                0x001076dc                tcp_pcb_purge
                0x00107b14                tcp_new
                0x001076bc                tcp_segs_free
                0x00107820                tcp_bind
                0x0010795c                tcp_abort
                0x00107690                tcp_seg_free
                0x00107ed4                tcp_connect
                0x00107570                tcp_eff_send_mss
                0x00107538                tcp_sent
                0x00107dd4                tcp_tmr
                0x00107528                tcp_setprio
                0x00107b20                tcp_slowtmr
                0x00107548                tcp_accept
                0x00107788                tcp_listen_with_backlog
                0x00107724                tcp_pcb_remove
                0x001075fc                tcp_fasttmr
                0x00107660                tcp_seg_copy
                0x0010754c                tcp_poll
 .text          0x00107fec     0x137c C:\mcbuilder\cores\makecontroller\core\lwip\src\core\tcp_in.o
                0x00108934                tcp_input
 .text          0x00109368       0x18 C:\mcbuilder\cores\makecontroller\core\lwip\src\core\init.o
                0x00109368                lwip_init
 .text          0x00109380      0x490 C:\mcbuilder\cores\makecontroller\core\lwip\src\core\ipv4\ip.o
                0x00109380                ip_output_if
                0x00109564                ip_output
                0x001094f4                ip_route
                0x001095ac                ip_input
 .text          0x00109810       0x58 C:\mcbuilder\cores\makecontroller\core\lwip\src\core\ipv4\ip_addr.o
                0x00109810                ip_addr_isbroadcast
 .text          0x00109868      0x3b0 C:\mcbuilder\cores\makecontroller\core\lwip\src\core\ipv4\icmp.o
                0x001099b8                icmp_input
                0x00109868                icmp_time_exceeded
                0x00109910                icmp_dest_unreach
 .text          0x00109c18      0x2c0 C:\mcbuilder\cores\makecontroller\core\lwip\src\core\ipv4\inet_chksum.o
                0x00109ccc                inet_chksum
                0x00109df8                inet_chksum_pseudo
                0x00109c70                inet_chksum_pbuf
                0x00109cf4                inet_chksum_pseudo_partial
 .text          0x00109ed8      0xf58 C:\mcbuilder\cores\makecontroller\core\lwip\src\core\dhcp.o
                0x0010a918                dhcp_start
                0x0010a20c                dhcp_release
                0x0010a0a4                dhcp_stop
                0x0010a624                dhcp_arp_reply
                0x0010ad9c                dhcp_fine_tmr
                0x0010a3c4                dhcp_renew
                0x0010a838                dhcp_inform
                0x0010a48c                dhcp_coarse_tmr
 .text          0x0010ae30      0x5b0 C:\mcbuilder\cores\makecontroller\core\lwip\src\core\dns.o
                0x0010b090                dns_gethostbyname
                0x0010ae30                dns_setserver
                0x0010ae74                dns_getserver
                0x0010b1bc                dns_tmr
                0x0010b1e0                dns_init
 .text          0x0010b3e0      0x370 C:\mcbuilder\cores\makecontroller\core\lwip\src\api\tcpip.o
                0x0010b3e0                tcpip_init
                0x0010b61c                tcpip_timeout
                0x0010b5e4                tcpip_apimsg
                0x0010b6c4                tcpip_input
                0x0010b42c                tcp_timer_needed
                0x0010b660                tcpip_callback_with_block
 .text          0x0010b750      0x9c4 C:\mcbuilder\cores\makecontroller\core\lwip\src\api\api_msg.o
                0x0010bd70                do_bind
                0x0010be3c                netconn_free
                0x0010bdcc                do_delconn
                0x0010b8c8                do_close
                0x0010bf28                netconn_alloc
                0x0010ba48                do_write
                0x0010b7ac                do_getaddr
                0x0010bce8                do_disconnect
                0x0010bb78                do_listen
                0x0010bae8                do_recv
                0x0010b750                do_gethostbyname
                0x0010bfe0                do_newconn
                0x0010bd0c                do_connect
                0x0010bb18                do_send
 .text          0x0010c114        0x0 C:\mcbuilder\cores\makecontroller\core\lwip\src\api\err.o
 .text          0x0010c114      0x154 C:\mcbuilder\cores\makecontroller\core\lwip\src\api\netbuf.o
                0x0010c1b0                netbuf_delete
                0x0010c21c                netbuf_alloc
                0x0010c250                netbuf_new
                0x0010c114                netbuf_data
                0x0010c190                netbuf_free
                0x0010c13c                netbuf_next
                0x0010c15c                netbuf_first
                0x0010c168                netbuf_chain
                0x0010c1d8                netbuf_ref
 .text          0x0010c268      0x3e0 C:\mcbuilder\cores\makecontroller\core\lwip\src\api\api_lib.o
                0x0010c2f4                netconn_write
                0x0010c2c8                netconn_close
                0x0010c3b4                netconn_disconnect
                0x0010c268                netconn_type
                0x0010c488                netconn_accept
                0x0010c448                netconn_getaddr
                0x0010c3e0                netconn_connect
                0x0010c368                netconn_sendto
                0x0010c388                netconn_listen_with_backlog
                0x0010c5c4                netconn_delete
                0x0010c338                netconn_send
                0x0010c5f4                netconn_new_with_proto_and_callback
                0x0010c270                netconn_gethostbyname
                0x0010c414                netconn_bind
                0x0010c4c0                netconn_recv
 .text          0x0010c648      0x920 C:\mcbuilder\cores\makecontroller\core\lwip\src\netif\etharp.o
                0x0010c68c                etharp_request
                0x0010cd4c                etharp_tmr
                0x0010cd9c                etharp_arp_input
                0x0010cf00                ethernet_input
                0x0010cbe4                etharp_find_addr
                0x0010c944                etharp_query
                0x0010cabc                etharp_output
                0x0010cd0c                etharp_ip_input
 .text          0x0010cf68      0x2b0 C:\mcbuilder\cores\makecontroller\core\lwip\contrib\port\FreeRTOS\AT91SAM7X\sys_arch.o
                0x0010d018                sys_mbox_trypost
                0x0010cfe0                sys_arch_timeouts
                0x0010cf68                sys_init
                0x0010d008                sys_sem_signal
                0x0010d0dc                sys_arch_mbox_fetch
                0x0010d13c                sys_sem_new
                0x0010d1e0                sys_mbox_free
                0x0010cf78                sys_arch_protect
                0x0010cff0                sys_sem_free
                0x0010d1ac                sys_mbox_new
                0x0010cf84                sys_thread_new
                0x0010d068                sys_arch_sem_wait
                0x0010cf6c                sys_arch_unprotect
                0x0010d0b8                sys_arch_mbox_tryfetch
                0x0010d04c                sys_mbox_post
 .text          0x0010d218      0x25c C:\mcbuilder\cores\makecontroller\core\lwip\src\netif\ethernetif.o
                0x0010d218                ethernetif_init
 .text          0x0010d474      0x620 C:\mcbuilder\cores\makecontroller\core\makingthings\SAM7_EMAC.o
                0x0010d4f4                vClearEMACTxBuffer
                0x0010d588                vEMACWaitForInput
                0x0010d9b4                lEMACSend
                0x0010d474                ulEMACInputLength
                0x0010d8c4                vEMACRead
                0x0010d5a0                xEMACInit
 .text          0x0010da94      0x570 C:\mcbuilder\cores\makecontroller\core\lwip\src\core\udp.o
                0x0010dbe8                udp_remove
                0x0010dd30                udp_sendto
                0x0010dc1c                udp_sendto_if
                0x0010db90                udp_disconnect
                0x0010dbbc                udp_recv
                0x0010db1c                udp_connect
                0x0010da94                udp_bind
                0x0010dd78                udp_send
                0x0010dd8c                udp_input
                0x0010dbc4                udp_new
 .text          0x0010e004      0x634 C:\mcbuilder\cores\makecontroller\core\lwip\src\core\ipv4\ip_frag.o
                0x0010e2c4                ip_reass
                0x0010e004                ip_frag
                0x0010e604                ip_reass_tmr
 .text          0x0010e638        0x0 C:\mcbuilder\cores\makecontroller\core\makingthings\osc.o
 .text          0x0010e638        0x0 C:\mcbuilder\cores\makecontroller\core\makingthings\osc_patternmatch.o
 .text          0x0010e638      0x254 C:\Sync\Desktop\todo\AinToWeb_public\AinToWeb_public.o
                0x0010e830                Run
                0x0010e638                BlinkTask
                0x0010e7d0                DataHandler
                0x0010e658                HomePageHandler
 .text          0x0010e88c       0xd0 C:\Users\bjepson\AppData\Local\Temp/ccXGDjSg.o
                0x0010e88c                start
                0x0010e93c                endless_loop
 .text          0x0010e95c      0x114 c:/mcbuilder/resources/tools/arm-elf/bin/../lib/gcc/arm-elf/4.2.2/interwork\libgcc.a(_udivsi3.o)
                0x0010e95c                __udivsi3
                0x0010e95c                __aeabi_uidiv
                0x0010ea58                __aeabi_uidivmod
 .text          0x0010ea70      0x144 c:/mcbuilder/resources/tools/arm-elf/bin/../lib/gcc/arm-elf/4.2.2/interwork\libgcc.a(_divsi3.o)
                0x0010ea70                __aeabi_idiv
                0x0010ea70                __divsi3
                0x0010eb9c                __aeabi_idivmod
 .text          0x0010ebb4       0xd0 c:/mcbuilder/resources/tools/arm-elf/bin/../lib/gcc/arm-elf/4.2.2/interwork\libgcc.a(_umodsi3.o)
                0x0010ebb4                __umodsi3
 .text          0x0010ec84       0xe8 c:/mcbuilder/resources/tools/arm-elf/bin/../lib/gcc/arm-elf/4.2.2/interwork\libgcc.a(_modsi3.o)
                0x0010ec84                __modsi3
 .text          0x0010ed6c        0x4 c:/mcbuilder/resources/tools/arm-elf/bin/../lib/gcc/arm-elf/4.2.2/interwork\libgcc.a(_dvmd_tls.o)
                0x0010ed6c                __aeabi_ldiv0
                0x0010ed6c                __div0
                0x0010ed6c                __aeabi_idiv0
 .text          0x0010ed70       0x30 c:/mcbuilder/resources/tools/arm-elf/bin/../lib/gcc/arm-elf/4.2.2/../../../../arm-elf/lib/interwork\libc.a(lib_a-atoi.o)
                0x0010ed70                _atoi_r
                0x0010ed88                atoi
 .text          0x0010eda0        0x0 c:/mcbuilder/resources/tools/arm-elf/bin/../lib/gcc/arm-elf/4.2.2/../../../../arm-elf/lib/interwork\libc.a(lib_a-ctype_.o)
 .text          0x0010eda0       0xa4 c:/mcbuilder/resources/tools/arm-elf/bin/../lib/gcc/arm-elf/4.2.2/../../../../arm-elf/lib/interwork\libc.a(lib_a-memcpy.o)
                0x0010eda0                memcpy
 .text          0x0010ee44       0x98 c:/mcbuilder/resources/tools/arm-elf/bin/../lib/gcc/arm-elf/4.2.2/../../../../arm-elf/lib/interwork\libc.a(lib_a-memset.o)
                0x0010ee44                memset
 .text          0x0010eedc      0x138 c:/mcbuilder/resources/tools/arm-elf/bin/../lib/gcc/arm-elf/4.2.2/../../../../arm-elf/lib/interwork\libc.a(lib_a-snprintf.o)
                0x0010eedc                snprintf
                0x0010ef7c                _snprintf_r
 .text          0x0010f014       0xdc c:/mcbuilder/resources/tools/arm-elf/bin/../lib/gcc/arm-elf/4.2.2/../../../../arm-elf/lib/interwork\libc.a(lib_a-sprintf.o)
                0x0010f088                _sprintf_r
                0x0010f014                sprintf
 .text          0x0010f0f0      0x108 c:/mcbuilder/resources/tools/arm-elf/bin/../lib/gcc/arm-elf/4.2.2/../../../../arm-elf/lib/interwork\libc.a(lib_a-sscanf.o)
                0x0010f178                sscanf
                0x0010f0f8                _sscanf_r
 .text          0x0010f1f8       0xa8 c:/mcbuilder/resources/tools/arm-elf/bin/../lib/gcc/arm-elf/4.2.2/../../../../arm-elf/lib/interwork\libc.a(lib_a-strcat.o)
                0x0010f1f8                strcat
 .text          0x0010f2a0      0x13c c:/mcbuilder/resources/tools/arm-elf/bin/../lib/gcc/arm-elf/4.2.2/../../../../arm-elf/lib/interwork\libc.a(lib_a-strchr.o)
                0x0010f2a0                strchr
 .text          0x0010f3dc       0xe8 c:/mcbuilder/resources/tools/arm-elf/bin/../lib/gcc/arm-elf/4.2.2/../../../../arm-elf/lib/interwork\libc.a(lib_a-strcmp.o)
                0x0010f3dc                strcmp
 .text          0x0010f4c4       0xa0 c:/mcbuilder/resources/tools/arm-elf/bin/../lib/gcc/arm-elf/4.2.2/../../../../arm-elf/lib/interwork\libc.a(lib_a-strcpy.o)
                0x0010f4c4                strcpy
 .text          0x0010f564       0x68 c:/mcbuilder/resources/tools/arm-elf/bin/../lib/gcc/arm-elf/4.2.2/../../../../arm-elf/lib/interwork\libc.a(lib_a-strlen.o)
                0x0010f564                strlen
 .text          0x0010f5cc      0x148 c:/mcbuilder/resources/tools/arm-elf/bin/../lib/gcc/arm-elf/4.2.2/../../../../arm-elf/lib/interwork\libc.a(lib_a-strncmp.o)
                0x0010f5cc                strncmp
 .text          0x0010f714      0x108 c:/mcbuilder/resources/tools/arm-elf/bin/../lib/gcc/arm-elf/4.2.2/../../../../arm-elf/lib/interwork\libc.a(lib_a-strncpy.o)
                0x0010f714                strncpy
 .text          0x0010f81c      0x1f4 c:/mcbuilder/resources/tools/arm-elf/bin/../lib/gcc/arm-elf/4.2.2/../../../../arm-elf/lib/interwork\libc.a(lib_a-strtol.o)
                0x0010f9e4                strtol
                0x0010f81c                _strtol_r
 .text          0x0010fa10     0x1dc4 c:/mcbuilder/resources/tools/arm-elf/bin/../lib/gcc/arm-elf/4.2.2/../../../../arm-elf/lib/interwork\libc.a(lib_a-vfprintf.o)
                0x0010fa48                _vfprintf_r
                0x001117a8                vfprintf
 .text          0x001117d4     0x1624 c:/mcbuilder/resources/tools/arm-elf/bin/../lib/gcc/arm-elf/4.2.2/../../../../arm-elf/lib/interwork\libc.a(lib_a-vfscanf.o)
                0x00112d34                __svfscanf
                0x00112d60                _vfscanf_r
                0x00112da4                vfscanf
                0x001117d4                __svfscanf_r
 .text          0x00112df8      0x13c c:/mcbuilder/resources/tools/arm-elf/bin/../lib/gcc/arm-elf/4.2.2/../../../../arm-elf/lib/interwork\libc.a(lib_a-wsetup.o)
                0x00112df8                __swsetup_r
 .text          0x00112f34     0x16fc c:/mcbuilder/resources/tools/arm-elf/bin/../lib/gcc/arm-elf/4.2.2/../../../../arm-elf/lib/interwork\libc.a(lib_a-dtoa.o)
                0x00113160                _dtoa_r
 .text          0x00114630      0x200 c:/mcbuilder/resources/tools/arm-elf/bin/../lib/gcc/arm-elf/4.2.2/../../../../arm-elf/lib/interwork\libc.a(lib_a-fflush.o)
                0x001147ec                fflush
                0x00114630                _fflush_r
 .text          0x00114830      0x2a0 c:/mcbuilder/resources/tools/arm-elf/bin/../lib/gcc/arm-elf/4.2.2/../../../../arm-elf/lib/interwork\libc.a(lib_a-findfp.o)
                0x0011489c                __sinit
                0x001149a0                __sfmoreglue
                0x00114990                _cleanup
                0x00114978                _cleanup_r
                0x00114954                __fp_lock_all
                0x0011488c                __sfp_lock_acquire
                0x001149f4                __sfp
                0x00114898                __sinit_lock_release
                0x00114930                __fp_unlock_all
                0x00114890                __sfp_lock_release
                0x00114894                __sinit_lock_acquire
 .text          0x00114ad0      0x214 c:/mcbuilder/resources/tools/arm-elf/bin/../lib/gcc/arm-elf/4.2.2/../../../../arm-elf/lib/interwork\libc.a(lib_a-fread.o)
                0x00114ca0                fread
                0x00114ad0                _fread_r
 .text          0x00114ce4      0x3b0 c:/mcbuilder/resources/tools/arm-elf/bin/../lib/gcc/arm-elf/4.2.2/../../../../arm-elf/lib/interwork\libc.a(lib_a-freer.o)
                0x00114de0                _free_r
                0x00114ce4                _malloc_trim_r
 .text          0x00115094      0x4b8 c:/mcbuilder/resources/tools/arm-elf/bin/../lib/gcc/arm-elf/4.2.2/../../../../arm-elf/lib/interwork\libc.a(lib_a-fvwrite.o)
                0x00115094                __sfvwrite_r
 .text          0x0011554c      0x114 c:/mcbuilder/resources/tools/arm-elf/bin/../lib/gcc/arm-elf/4.2.2/../../../../arm-elf/lib/interwork\libc.a(lib_a-fwalk.o)
                0x001155d8                _fwalk
                0x0011554c                _fwalk_reent
 .text          0x00115660        0x0 c:/mcbuilder/resources/tools/arm-elf/bin/../lib/gcc/arm-elf/4.2.2/../../../../arm-elf/lib/interwork\libc.a(lib_a-impure.o)
 .text          0x00115660       0x20 c:/mcbuilder/resources/tools/arm-elf/bin/../lib/gcc/arm-elf/4.2.2/../../../../arm-elf/lib/interwork\libc.a(lib_a-iswspace.o)
                0x00115660                iswspace
 .text          0x00115680       0xa8 c:/mcbuilder/resources/tools/arm-elf/bin/../lib/gcc/arm-elf/4.2.2/../../../../arm-elf/lib/interwork\libc.a(lib_a-locale.o)
                0x001156ac                _setlocale_r
                0x00115680                __locale_charset
                0x00115690                _localeconv_r
                0x0011570c                setlocale
                0x0011569c                localeconv
 .text          0x00115728      0x164 c:/mcbuilder/resources/tools/arm-elf/bin/../lib/gcc/arm-elf/4.2.2/../../../../arm-elf/lib/interwork\libc.a(lib_a-makebuf.o)
                0x00115728                __smakebuf_r
 .text          0x0011588c      0x79c c:/mcbuilder/resources/tools/arm-elf/bin/../lib/gcc/arm-elf/4.2.2/../../../../arm-elf/lib/interwork\libc.a(lib_a-mallocr.o)
                0x0011588c                _malloc_r
 .text          0x00116028       0xa0 c:/mcbuilder/resources/tools/arm-elf/bin/../lib/gcc/arm-elf/4.2.2/../../../../arm-elf/lib/interwork\libc.a(lib_a-mbrtowc.o)
                0x00116084                mbrtowc
                0x00116028                _mbrtowc_r
 .text          0x001160c8       0x50 c:/mcbuilder/resources/tools/arm-elf/bin/../lib/gcc/arm-elf/4.2.2/../../../../arm-elf/lib/interwork\libc.a(lib_a-mbtowc_r.o)
                0x001160c8                _mbtowc_r
 .text          0x00116118      0x110 c:/mcbuilder/resources/tools/arm-elf/bin/../lib/gcc/arm-elf/4.2.2/../../../../arm-elf/lib/interwork\libc.a(lib_a-memchr.o)
                0x00116118                memchr
 .text          0x00116228       0xf4 c:/mcbuilder/resources/tools/arm-elf/bin/../lib/gcc/arm-elf/4.2.2/../../../../arm-elf/lib/interwork\libc.a(lib_a-memmove.o)
                0x00116228                memmove
 .text          0x0011631c        0x8 c:/mcbuilder/resources/tools/arm-elf/bin/../lib/gcc/arm-elf/4.2.2/../../../../arm-elf/lib/interwork\libc.a(lib_a-mlock.o)
                0x00116320                __malloc_unlock
                0x0011631c                __malloc_lock
 .text          0x00116324      0xd38 c:/mcbuilder/resources/tools/arm-elf/bin/../lib/gcc/arm-elf/4.2.2/../../../../arm-elf/lib/interwork\libc.a(lib_a-mprec.o)
                0x00116630                _mprec_log10
                0x001166f8                __any_on
                0x00116798                _Balloc
                0x001165ac                __ratio
                0x00116d84                __i2b
                0x001164ec                __b2d
                0x00116f78                __s2b
                0x0011642c                __mcmp
                0x00116340                __hi0bits
                0x00116e80                __pow5mult
                0x00116aa0                __lshift
                0x00116bac                __multiply
                0x0011682c                __d2b
                0x0011669c                __copybits
                0x0011648c                __ulp
                0x0011695c                __mdiff
                0x00116398                __lo0bits
                0x00116da8                __multadd
                0x00116324                _Bfree
 .text          0x0011705c      0x5e4 c:/mcbuilder/resources/tools/arm-elf/bin/../lib/gcc/arm-elf/4.2.2/../../../../arm-elf/lib/interwork\libc.a(lib_a-reallocr.o)
                0x0011705c                _realloc_r
 .text          0x00117640      0x1c0 c:/mcbuilder/resources/tools/arm-elf/bin/../lib/gcc/arm-elf/4.2.2/../../../../arm-elf/lib/interwork\libc.a(lib_a-refill.o)
                0x00117640                __srefill_r
 .text          0x00117800       0x3c c:/mcbuilder/resources/tools/arm-elf/bin/../lib/gcc/arm-elf/4.2.2/../../../../arm-elf/lib/interwork\libc.a(lib_a-s_isinfd.o)
                0x00117800                __isinfd
 .text          0x0011783c       0x30 c:/mcbuilder/resources/tools/arm-elf/bin/../lib/gcc/arm-elf/4.2.2/../../../../arm-elf/lib/interwork\libc.a(lib_a-s_isnand.o)
                0x0011783c                __isnand
 .text          0x0011786c       0xcc c:/mcbuilder/resources/tools/arm-elf/bin/../lib/gcc/arm-elf/4.2.2/../../../../arm-elf/lib/interwork\libc.a(lib_a-sccl.o)
                0x0011786c                __sccl
 .text          0x00117938        0xc c:/mcbuilder/resources/tools/arm-elf/bin/../lib/gcc/arm-elf/4.2.2/../../../../arm-elf/lib/interwork\libc.a(lib_a-sf_nan.o)
                0x00117938                nanf
 .text          0x00117944       0xd8 c:/mcbuilder/resources/tools/arm-elf/bin/../lib/gcc/arm-elf/4.2.2/../../../../arm-elf/lib/interwork\libc.a(lib_a-stdio.o)
                0x00117958                __sseek
                0x001179e8                __sread
                0x00117944                __sclose
                0x00117990                __swrite
 .text          0x00117a1c     0x15e8 c:/mcbuilder/resources/tools/arm-elf/bin/../lib/gcc/arm-elf/4.2.2/../../../../arm-elf/lib/interwork\libc.a(lib_a-strtod.o)
                0x00117a64                _strtod_r
                0x00118fe8                strtod
                0x00118f94                strtof
 .text          0x00119004      0x1f8 c:/mcbuilder/resources/tools/arm-elf/bin/../lib/gcc/arm-elf/4.2.2/../../../../arm-elf/lib/interwork\libc.a(lib_a-strtoul.o)
                0x001191d0                strtoul
                0x00119004                _strtoul_r
 .text          0x001191fc      0x89c c:/mcbuilder/resources/tools/arm-elf/bin/../lib/gcc/arm-elf/4.2.2/../../../../arm-elf/lib/interwork\libc.a(lib_a-syscalls.o)
                0x00119284                _getpid
                0x001197d4                initialise_monitor_handles
                0x00119988                isatty
                0x001197a0                _fstat
                0x001193ec                _open
                0x00119298                _sbrk
                0x00119294                _raise
                0x001199c4                _times
                0x00119750                _stat
                0x0011968c                _lseek
                0x0011928c                _link
                0x001194ec                _swiwrite
                0x0011989c                _rename
                0x001195a4                _swilseek
                0x0011948c                _swiclose
                0x00119324                _swiopen
                0x00119a50                _unlink
                0x0011952c                _write
                0x00119228                _kill
                0x00119a04                _gettimeofday
                0x001196dc                _read
                0x0011927c                _exit
                0x001198f8                _system
                0x0011969c                _swiread
                0x001194dc                _close
 .text          0x00119a98      0x24c c:/mcbuilder/resources/tools/arm-elf/bin/../lib/gcc/arm-elf/4.2.2/../../../../arm-elf/lib/interwork\libc.a(lib_a-ungetc.o)
                0x00119cc8                ungetc
                0x00119a98                __submore
                0x00119b48                _ungetc_r
 .text          0x00119ce4       0xa0 c:/mcbuilder/resources/tools/arm-elf/bin/../lib/gcc/arm-elf/4.2.2/../../../../arm-elf/lib/interwork\libc.a(lib_a-callocr.o)
                0x00119ce4                _calloc_r
 .text          0x00119d84       0x10 c:/mcbuilder/resources/tools/arm-elf/bin/../lib/gcc/arm-elf/4.2.2/../../../../arm-elf/lib/interwork\libc.a(lib_a-errno.o)
                0x00119d84                __errno
 .text          0x00119d94      0x10c c:/mcbuilder/resources/tools/arm-elf/bin/../lib/gcc/arm-elf/4.2.2/../../../../arm-elf/lib/interwork\libc.a(lib_a-fclose.o)
                0x00119d94                _fclose_r
                0x00119e8c                fclose
 .text          0x00119ea0      0x840 c:/mcbuilder/resources/tools/arm-elf/bin/../lib/gcc/arm-elf/4.2.2/../../../../arm-elf/lib/interwork\libc.a(lib_a-gdtoa-gethex.o)
                0x00119ed4                __hexdig_init
                0x00119fd8                __gethex
 .text          0x0011a6e0      0x278 c:/mcbuilder/resources/tools/arm-elf/bin/../lib/gcc/arm-elf/4.2.2/../../../../arm-elf/lib/interwork\libc.a(lib_a-gdtoa-hexnan.o)
                0x0011a718                __hexnan
 .text          0x0011a958      0x430 c:/mcbuilder/resources/tools/arm-elf/bin/../lib/gcc/arm-elf/4.2.2/interwork\libgcc.a(_addsubdf3.o)
                0x0011ad1c                __floatdidf
                0x0011ac9c                __floatsidf
                0x0011ac74                __aeabi_ui2d
                0x0011a958                __aeabi_drsub
                0x0011acc8                __extendsfdf2
                0x0011a964                __adddf3
                0x0011ac74                __floatunsidf
                0x0011a964                __aeabi_dadd
                0x0011ad08                __aeabi_ul2d
                0x0011a960                __aeabi_dsub
                0x0011ad08                __floatundidf
                0x0011ac9c                __aeabi_i2d
                0x0011ad1c                __aeabi_l2d
                0x0011acc8                __aeabi_f2d
                0x0011a960                __subdf3
 .text          0x0011ad88      0x49c c:/mcbuilder/resources/tools/arm-elf/bin/../lib/gcc/arm-elf/4.2.2/interwork\libgcc.a(_muldivdf3.o)
                0x0011b018                __aeabi_ddiv
                0x0011ad88                __aeabi_dmul
                0x0011b018                __divdf3
                0x0011ad88                __muldf3
 .text          0x0011b224      0x140 c:/mcbuilder/resources/tools/arm-elf/bin/../lib/gcc/arm-elf/4.2.2/interwork\libgcc.a(_cmpdf2.o)
                0x0011b31c                __aeabi_dcmple
                0x0011b234                __cmpdf2
                0x0011b234                __eqdf2
                0x0011b224                __gtdf2
                0x0011b2d4                __aeabi_cdcmple
                0x0011b2b8                __aeabi_cdrcmple
                0x0011b22c                __ltdf2
                0x0011b304                __aeabi_dcmplt
                0x0011b22c                __ledf2
                0x0011b34c                __aeabi_dcmpgt
                0x0011b334                __aeabi_dcmpge
                0x0011b234                __nedf2
                0x0011b2ec                __aeabi_dcmpeq
                0x0011b2d4                __aeabi_cdcmpeq
                0x0011b224                __gedf2
 .text          0x0011b364       0x5c c:/mcbuilder/resources/tools/arm-elf/bin/../lib/gcc/arm-elf/4.2.2/interwork\libgcc.a(_fixdfsi.o)
                0x0011b364                __fixdfsi
                0x0011b364                __aeabi_d2iz
 .text          0x0011b3c0       0x54 c:/mcbuilder/resources/tools/arm-elf/bin/../lib/gcc/arm-elf/4.2.2/interwork\libgcc.a(_fixunsdfsi.o)
                0x0011b3c0                __fixunsdfsi
                0x0011b3c0                __aeabi_d2uiz
 .text          0x0011b414       0xa0 c:/mcbuilder/resources/tools/arm-elf/bin/../lib/gcc/arm-elf/4.2.2/interwork\libgcc.a(_truncdfsf2.o)
                0x0011b414                __aeabi_d2f
                0x0011b414                __truncdfsf2
 *(.rodata)
 .rodata        0x0011b4b4       0x38 C:\mcbuilder\cores\makecontroller\core\lwip\src\core\memp.o
 .rodata        0x0011b4ec       0x34 C:\mcbuilder\cores\makecontroller\core\lwip\src\core\tcp.o
                0x0011b519                tcp_persist_backoff
                0x0011b50c                tcp_backoff
 .rodata        0x0011b520       0x20 C:\mcbuilder\cores\makecontroller\core\lwip\src\core\tcp_in.o
 .rodata        0x0011b540        0x8 C:\mcbuilder\cores\makecontroller\core\lwip\src\core\ipv4\ip_addr.o
                0x0011b540                ip_addr_any
                0x0011b544                ip_addr_broadcast
 .rodata        0x0011b548        0xc C:\mcbuilder\cores\makecontroller\core\lwip\src\netif\etharp.o
                0x0011b548                ethbroadcast
                0x0011b54e                ethzero
 .rodata        0x0011b554      0x101 c:/mcbuilder/resources/tools/arm-elf/bin/../lib/gcc/arm-elf/4.2.2/../../../../arm-elf/lib/interwork\libc.a(lib_a-ctype_.o)
                0x0011b554                _ctype_
 .rodata        0x0011b655       0x20 c:/mcbuilder/resources/tools/arm-elf/bin/../lib/gcc/arm-elf/4.2.2/../../../../arm-elf/lib/interwork\libc.a(lib_a-vfprintf.o)
 *fill*         0x0011b675        0x1 00
 .rodata        0x0011b676       0x22 c:/mcbuilder/resources/tools/arm-elf/bin/../lib/gcc/arm-elf/4.2.2/../../../../arm-elf/lib/interwork\libc.a(lib_a-vfscanf.o)
 .rodata        0x0011b698        0x4 c:/mcbuilder/resources/tools/arm-elf/bin/../lib/gcc/arm-elf/4.2.2/../../../../arm-elf/lib/interwork\libc.a(lib_a-impure.o)
                0x0011b698                _global_impure_ptr
 .rodata        0x0011b69c       0x34 c:/mcbuilder/resources/tools/arm-elf/bin/../lib/gcc/arm-elf/4.2.2/../../../../arm-elf/lib/interwork\libc.a(lib_a-locale.o)
 .rodata        0x0011b6d0      0x124 c:/mcbuilder/resources/tools/arm-elf/bin/../lib/gcc/arm-elf/4.2.2/../../../../arm-elf/lib/interwork\libc.a(lib_a-mprec.o)
                0x0011b7c0                __mprec_tinytens
                0x0011b6d0                __mprec_tens
                0x0011b798                __mprec_bigtens
 .rodata        0x0011b7f4       0x28 c:/mcbuilder/resources/tools/arm-elf/bin/../lib/gcc/arm-elf/4.2.2/../../../../arm-elf/lib/interwork\libc.a(lib_a-strtod.o)
 *(.rodata*)
 .rodata.str1.4
                0x0011b81c      0x31c C:\mcbuilder\cores\makecontroller\libraries\webserver\webserver.o
                                0x320 (size before relaxing)
 .rodata.str1.4
                0x0011bb38       0x19 C:\mcbuilder\cores\makecontroller\core\freertos\tasks.o
                                 0x20 (size before relaxing)
 *fill*         0x0011bb51        0x3 00
 .rodata.str1.4
                0x0011bb54        0x5 C:\mcbuilder\cores\makecontroller\core\makingthings\main.o
                                  0x8 (size before relaxing)
 *fill*         0x0011bb59        0x3 00
 .rodata.str1.4
                0x0011bb5c       0x10 C:\mcbuilder\cores\makecontroller\core\makingthings\network.o
 .rodata.str1.4
                0x0011bb6c       0x14 C:\mcbuilder\cores\makecontroller\core\makingthings\system.o
 .rodata.str1.4
                0x0011bb80        0xf C:\mcbuilder\cores\makecontroller\core\lwip\src\core\dns.o
                                 0x10 (size before relaxing)
 *fill*         0x0011bb8f        0x1 00
 .rodata.str1.4
                0x0011bb90        0xd C:\mcbuilder\cores\makecontroller\core\lwip\src\api\tcpip.o
                                 0x10 (size before relaxing)
 *fill*         0x0011bb9d        0x3 00
 .rodata.str1.4
                0x0011bba0        0x5 C:\mcbuilder\cores\makecontroller\core\lwip\contrib\port\FreeRTOS\AT91SAM7X\sys_arch.o
                                  0x8 (size before relaxing)
 *fill*         0x0011bba5        0x3 00
 .rodata.str1.4
                0x0011bba8        0x8 C:\mcbuilder\cores\makecontroller\core\lwip\src\netif\ethernetif.o
 .rodata.str1.4
                0x0011bbb0      0x52a C:\Sync\Desktop\todo\AinToWeb_public\AinToWeb_public.o
                                0x52c (size before relaxing)
 *fill*         0x0011c0da        0x2 00
 .rodata.str1.4
                0x0011c0dc       0x5e c:/mcbuilder/resources/tools/arm-elf/bin/../lib/gcc/arm-elf/4.2.2/../../../../arm-elf/lib/interwork\libc.a(lib_a-vfprintf.o)
                                 0x60 (size before relaxing)
 *fill*         0x0011c13a        0x2 00
 .rodata.str1.4
                0x0011c13c        0x5 c:/mcbuilder/resources/tools/arm-elf/bin/../lib/gcc/arm-elf/4.2.2/../../../../arm-elf/lib/interwork\libc.a(lib_a-vfscanf.o)
                                  0x8 (size before relaxing)
 *fill*         0x0011c141        0x3 00
 .rodata.str1.4
                0x0011c144       0x10 c:/mcbuilder/resources/tools/arm-elf/bin/../lib/gcc/arm-elf/4.2.2/../../../../arm-elf/lib/interwork\libc.a(lib_a-dtoa.o)
                                 0x14 (size before relaxing)
 .rodata.str1.4
                0x0011c154        0x2 c:/mcbuilder/resources/tools/arm-elf/bin/../lib/gcc/arm-elf/4.2.2/../../../../arm-elf/lib/interwork\libc.a(lib_a-impure.o)
                                  0x4 (size before relaxing)
 *fill*         0x0011c156        0x2 00
 .rodata.str1.4
                0x0011c158        0xb c:/mcbuilder/resources/tools/arm-elf/bin/../lib/gcc/arm-elf/4.2.2/../../../../arm-elf/lib/interwork\libc.a(lib_a-locale.o)
                                 0x18 (size before relaxing)
 .rodata.str1.4
                0x00000000        0x4 c:/mcbuilder/resources/tools/arm-elf/bin/../lib/gcc/arm-elf/4.2.2/../../../../arm-elf/lib/interwork\libc.a(lib_a-mbrtowc.o)
 *fill*         0x0011c163        0x1 00
 .rodata.str1.4
                0x0011c164        0xf c:/mcbuilder/resources/tools/arm-elf/bin/../lib/gcc/arm-elf/4.2.2/../../../../arm-elf/lib/interwork\libc.a(lib_a-strtod.o)
                                 0x10 (size before relaxing)
 *fill*         0x0011c173        0x1 00
 .rodata.str1.4
                0x0011c174        0x4 c:/mcbuilder/resources/tools/arm-elf/bin/../lib/gcc/arm-elf/4.2.2/../../../../arm-elf/lib/interwork\libc.a(lib_a-syscalls.o)
 .rodata.str1.4
                0x0011c178       0x1c c:/mcbuilder/resources/tools/arm-elf/bin/../lib/gcc/arm-elf/4.2.2/../../../../arm-elf/lib/interwork\libc.a(lib_a-gdtoa-gethex.o)
 *(.glue_7)
 .glue_7        0x0011c194        0x0 C:\mcbuilder\cores\makecontroller\core\freertos\portable\GCC\ARM7_AT91SAM7S\portISR.o
 .glue_7        0x0011c194        0x0 C:\mcbuilder\cores\makecontroller\core\makingthings\SAM7_EMAC_ISR.o
 .glue_7        0x0011c194        0x0 C:\mcbuilder\cores\makecontroller\core\makingthings\USBIsr.o
 .glue_7        0x0011c194        0x0 C:\mcbuilder\cores\makecontroller\core\startup\Cstartup_SAM7.o
 .glue_7        0x0011c194        0x0 C:\mcbuilder\cores\makecontroller\core\makingthings\analogin_isr.o
 .glue_7        0x0011c194        0x0 C:\mcbuilder\cores\makecontroller\core\makingthings\fasttimer_isr.o
 .glue_7        0x0011c194        0x0 C:\mcbuilder\cores\makecontroller\core\makingthings\serial_isr.o
 .glue_7        0x0011c194        0x0 C:\mcbuilder\cores\makecontroller\core\makingthings\timer_isr.o
 .glue_7        0x0011c194        0x0 C:\mcbuilder\cores\makecontroller\libraries\appled\appled.o
 .glue_7        0x0011c194        0x0 C:\mcbuilder\cores\makecontroller\libraries\webserver\webserver.o
 .glue_7        0x0011c194        0x0 C:\mcbuilder\cores\makecontroller\core\freertos\tasks.o
 .glue_7        0x0011c194        0x0 C:\mcbuilder\cores\makecontroller\core\freertos\queue.o
 .glue_7        0x0011c194        0x0 C:\mcbuilder\cores\makecontroller\core\freertos\list.o
 .glue_7        0x0011c194        0x0 C:\mcbuilder\cores\makecontroller\core\freertos\portable\GCC\ARM7_AT91SAM7S\port.o
 .glue_7        0x0011c194        0x0 C:\mcbuilder\cores\makecontroller\core\startup\extras.o
 .glue_7        0x0011c194        0x0 C:\mcbuilder\cores\makecontroller\core\freertos\portable\MemMang\heap_2.o
 .glue_7        0x0011c194        0x0 C:\mcbuilder\cores\makecontroller\core\makingthings\main.o
 .glue_7        0x0011c194        0x0 C:\mcbuilder\cores\makecontroller\core\makingthings\eeprom.o
 .glue_7        0x0011c194        0x0 C:\mcbuilder\cores\makecontroller\core\makingthings\analogin.o
 .glue_7        0x0011c194        0x0 C:\mcbuilder\cores\makecontroller\core\makingthings\serial.o
 .glue_7        0x0011c194        0x0 C:\mcbuilder\cores\makecontroller\core\makingthings\pwm.o
 .glue_7        0x0011c194        0x0 C:\mcbuilder\cores\makecontroller\core\makingthings\spi.o
 .glue_7        0x0011c194        0x0 C:\mcbuilder\cores\makecontroller\core\makingthings\USB-CDC.o
 .glue_7        0x0011c194        0x0 C:\mcbuilder\cores\makecontroller\core\makingthings\rtos.o
 .glue_7        0x0011c194        0x0 C:\mcbuilder\cores\makecontroller\core\makingthings\usb.o
 .glue_7        0x0011c194        0x0 C:\mcbuilder\cores\makecontroller\core\makingthings\network.o
 .glue_7        0x0011c194        0x0 C:\mcbuilder\cores\makecontroller\core\makingthings\system.o
 .glue_7        0x0011c194        0x0 C:\mcbuilder\cores\makecontroller\core\makingthings\io.o
 .glue_7        0x0011c194        0x0 C:\mcbuilder\cores\makecontroller\core\makingthings\led.o
 .glue_7        0x0011c194        0x0 C:\mcbuilder\cores\makecontroller\core\makingthings\timer.o
 .glue_7        0x0011c194        0x0 C:\mcbuilder\cores\makecontroller\core\makingthings\fasttimer.o
 .glue_7        0x0011c194        0x0 C:\mcbuilder\cores\makecontroller\core\makingthings\debugosc.o
 .glue_7        0x0011c194        0x0 C:\mcbuilder\cores\makecontroller\core\lwip\src\core\tcp_out.o
 .glue_7        0x0011c194        0x0 C:\mcbuilder\cores\makecontroller\core\lwip\src\core\ipv4\inet.o
 .glue_7        0x0011c194        0x0 C:\mcbuilder\cores\makecontroller\core\lwip\src\core\mem.o
 .glue_7        0x0011c194        0x0 C:\mcbuilder\cores\makecontroller\core\lwip\src\core\memp.o
 .glue_7        0x0011c194        0x0 C:\mcbuilder\cores\makecontroller\core\lwip\src\core\netif.o
 .glue_7        0x0011c194        0x0 C:\mcbuilder\cores\makecontroller\core\lwip\src\core\pbuf.o
 .glue_7        0x0011c194        0x0 C:\mcbuilder\cores\makecontroller\core\lwip\src\core\raw.o
 .glue_7        0x0011c194        0x0 C:\mcbuilder\cores\makecontroller\core\lwip\src\core\stats.o
 .glue_7        0x0011c194        0x0 C:\mcbuilder\cores\makecontroller\core\lwip\src\core\sys.o
 .glue_7        0x0011c194        0x0 C:\mcbuilder\cores\makecontroller\core\lwip\src\core\tcp.o
 .glue_7        0x0011c194        0x0 C:\mcbuilder\cores\makecontroller\core\lwip\src\core\tcp_in.o
 .glue_7        0x0011c194        0x0 C:\mcbuilder\cores\makecontroller\core\lwip\src\core\init.o
 .glue_7        0x0011c194        0x0 C:\mcbuilder\cores\makecontroller\core\lwip\src\core\ipv4\ip.o
 .glue_7        0x0011c194        0x0 C:\mcbuilder\cores\makecontroller\core\lwip\src\core\ipv4\ip_addr.o
 .glue_7        0x0011c194        0x0 C:\mcbuilder\cores\makecontroller\core\lwip\src\core\ipv4\icmp.o
 .glue_7        0x0011c194        0x0 C:\mcbuilder\cores\makecontroller\core\lwip\src\core\ipv4\inet_chksum.o
 .glue_7        0x0011c194        0x0 C:\mcbuilder\cores\makecontroller\core\lwip\src\core\dhcp.o
 .glue_7        0x0011c194        0x0 C:\mcbuilder\cores\makecontroller\core\lwip\src\core\dns.o
 .glue_7        0x0011c194        0x0 C:\mcbuilder\cores\makecontroller\core\lwip\src\api\tcpip.o
 .glue_7        0x0011c194        0x0 C:\mcbuilder\cores\makecontroller\core\lwip\src\api\api_msg.o
 .glue_7        0x0011c194        0x0 C:\mcbuilder\cores\makecontroller\core\lwip\src\api\err.o
 .glue_7        0x0011c194        0x0 C:\mcbuilder\cores\makecontroller\core\lwip\src\api\netbuf.o
 .glue_7        0x0011c194        0x0 C:\mcbuilder\cores\makecontroller\core\lwip\src\api\api_lib.o
 .glue_7        0x0011c194        0x0 C:\mcbuilder\cores\makecontroller\core\lwip\src\netif\etharp.o
 .glue_7        0x0011c194        0x0 C:\mcbuilder\cores\makecontroller\core\lwip\contrib\port\FreeRTOS\AT91SAM7X\sys_arch.o
 .glue_7        0x0011c194        0x0 C:\mcbuilder\cores\makecontroller\core\lwip\src\netif\ethernetif.o
 .glue_7        0x0011c194        0x0 C:\mcbuilder\cores\makecontroller\core\makingthings\SAM7_EMAC.o
 .glue_7        0x0011c194        0x0 C:\mcbuilder\cores\makecontroller\core\lwip\src\core\udp.o
 .glue_7        0x0011c194        0x0 C:\mcbuilder\cores\makecontroller\core\lwip\src\core\ipv4\ip_frag.o
 .glue_7        0x0011c194        0x0 C:\mcbuilder\cores\makecontroller\core\makingthings\osc.o
 .glue_7        0x0011c194        0x0 C:\mcbuilder\cores\makecontroller\core\makingthings\osc_patternmatch.o
 .glue_7        0x0011c194        0x0 C:\Sync\Desktop\todo\AinToWeb_public\AinToWeb_public.o
 .glue_7        0x0011c194        0x0 C:\Users\bjepson\AppData\Local\Temp/ccXGDjSg.o
 .glue_7        0x0011c194        0x0 c:/mcbuilder/resources/tools/arm-elf/bin/../lib/gcc/arm-elf/4.2.2/interwork\libgcc.a(_udivsi3.o)
 .glue_7        0x0011c194        0x0 c:/mcbuilder/resources/tools/arm-elf/bin/../lib/gcc/arm-elf/4.2.2/interwork\libgcc.a(_divsi3.o)
 .glue_7        0x0011c194        0x0 c:/mcbuilder/resources/tools/arm-elf/bin/../lib/gcc/arm-elf/4.2.2/interwork\libgcc.a(_umodsi3.o)
 .glue_7        0x0011c194        0x0 c:/mcbuilder/resources/tools/arm-elf/bin/../lib/gcc/arm-elf/4.2.2/interwork\libgcc.a(_modsi3.o)
 .glue_7        0x0011c194        0x0 c:/mcbuilder/resources/tools/arm-elf/bin/../lib/gcc/arm-elf/4.2.2/interwork\libgcc.a(_dvmd_tls.o)
 .glue_7        0x0011c194        0x0 c:/mcbuilder/resources/tools/arm-elf/bin/../lib/gcc/arm-elf/4.2.2/../../../../arm-elf/lib/interwork\libc.a(lib_a-atoi.o)
 .glue_7        0x0011c194        0x0 c:/mcbuilder/resources/tools/arm-elf/bin/../lib/gcc/arm-elf/4.2.2/../../../../arm-elf/lib/interwork\libc.a(lib_a-ctype_.o)
 .glue_7        0x0011c194        0x0 c:/mcbuilder/resources/tools/arm-elf/bin/../lib/gcc/arm-elf/4.2.2/../../../../arm-elf/lib/interwork\libc.a(lib_a-memcpy.o)
 .glue_7        0x0011c194        0x0 c:/mcbuilder/resources/tools/arm-elf/bin/../lib/gcc/arm-elf/4.2.2/../../../../arm-elf/lib/interwork\libc.a(lib_a-memset.o)
 .glue_7        0x0011c194        0x0 c:/mcbuilder/resources/tools/arm-elf/bin/../lib/gcc/arm-elf/4.2.2/../../../../arm-elf/lib/interwork\libc.a(lib_a-snprintf.o)
 .glue_7        0x0011c194        0x0 c:/mcbuilder/resources/tools/arm-elf/bin/../lib/gcc/arm-elf/4.2.2/../../../../arm-elf/lib/interwork\libc.a(lib_a-sprintf.o)
 .glue_7        0x0011c194        0x0 c:/mcbuilder/resources/tools/arm-elf/bin/../lib/gcc/arm-elf/4.2.2/../../../../arm-elf/lib/interwork\libc.a(lib_a-sscanf.o)
 .glue_7        0x0011c194        0x0 c:/mcbuilder/resources/tools/arm-elf/bin/../lib/gcc/arm-elf/4.2.2/../../../../arm-elf/lib/interwork\libc.a(lib_a-strcat.o)
 .glue_7        0x0011c194        0x0 c:/mcbuilder/resources/tools/arm-elf/bin/../lib/gcc/arm-elf/4.2.2/../../../../arm-elf/lib/interwork\libc.a(lib_a-strchr.o)
 .glue_7        0x0011c194        0x0 c:/mcbuilder/resources/tools/arm-elf/bin/../lib/gcc/arm-elf/4.2.2/../../../../arm-elf/lib/interwork\libc.a(lib_a-strcmp.o)
 .glue_7        0x0011c194        0x0 c:/mcbuilder/resources/tools/arm-elf/bin/../lib/gcc/arm-elf/4.2.2/../../../../arm-elf/lib/interwork\libc.a(lib_a-strcpy.o)
 .glue_7        0x0011c194        0x0 c:/mcbuilder/resources/tools/arm-elf/bin/../lib/gcc/arm-elf/4.2.2/../../../../arm-elf/lib/interwork\libc.a(lib_a-strlen.o)
 .glue_7        0x0011c194        0x0 c:/mcbuilder/resources/tools/arm-elf/bin/../lib/gcc/arm-elf/4.2.2/../../../../arm-elf/lib/interwork\libc.a(lib_a-strncmp.o)
 .glue_7        0x0011c194        0x0 c:/mcbuilder/resources/tools/arm-elf/bin/../lib/gcc/arm-elf/4.2.2/../../../../arm-elf/lib/interwork\libc.a(lib_a-strncpy.o)
 .glue_7        0x0011c194        0x0 c:/mcbuilder/resources/tools/arm-elf/bin/../lib/gcc/arm-elf/4.2.2/../../../../arm-elf/lib/interwork\libc.a(lib_a-strtol.o)
 .glue_7        0x0011c194        0x0 c:/mcbuilder/resources/tools/arm-elf/bin/../lib/gcc/arm-elf/4.2.2/../../../../arm-elf/lib/interwork\libc.a(lib_a-vfprintf.o)
 .glue_7        0x0011c194        0x0 c:/mcbuilder/resources/tools/arm-elf/bin/../lib/gcc/arm-elf/4.2.2/../../../../arm-elf/lib/interwork\libc.a(lib_a-vfscanf.o)
 .glue_7        0x0011c194        0x0 c:/mcbuilder/resources/tools/arm-elf/bin/../lib/gcc/arm-elf/4.2.2/../../../../arm-elf/lib/interwork\libc.a(lib_a-wsetup.o)
 .glue_7        0x0011c194        0x0 c:/mcbuilder/resources/tools/arm-elf/bin/../lib/gcc/arm-elf/4.2.2/../../../../arm-elf/lib/interwork\libc.a(lib_a-dtoa.o)
 .glue_7        0x0011c194        0x0 c:/mcbuilder/resources/tools/arm-elf/bin/../lib/gcc/arm-elf/4.2.2/../../../../arm-elf/lib/interwork\libc.a(lib_a-fflush.o)
 .glue_7        0x0011c194        0x0 c:/mcbuilder/resources/tools/arm-elf/bin/../lib/gcc/arm-elf/4.2.2/../../../../arm-elf/lib/interwork\libc.a(lib_a-findfp.o)
 .glue_7        0x0011c194        0x0 c:/mcbuilder/resources/tools/arm-elf/bin/../lib/gcc/arm-elf/4.2.2/../../../../arm-elf/lib/interwork\libc.a(lib_a-fread.o)
 .glue_7        0x0011c194        0x0 c:/mcbuilder/resources/tools/arm-elf/bin/../lib/gcc/arm-elf/4.2.2/../../../../arm-elf/lib/interwork\libc.a(lib_a-freer.o)
 .glue_7        0x0011c194        0x0 c:/mcbuilder/resources/tools/arm-elf/bin/../lib/gcc/arm-elf/4.2.2/../../../../arm-elf/lib/interwork\libc.a(lib_a-fvwrite.o)
 .glue_7        0x0011c194        0x0 c:/mcbuilder/resources/tools/arm-elf/bin/../lib/gcc/arm-elf/4.2.2/../../../../arm-elf/lib/interwork\libc.a(lib_a-fwalk.o)
 .glue_7        0x0011c194        0x0 c:/mcbuilder/resources/tools/arm-elf/bin/../lib/gcc/arm-elf/4.2.2/../../../../arm-elf/lib/interwork\libc.a(lib_a-impure.o)
 .glue_7        0x0011c194        0x0 c:/mcbuilder/resources/tools/arm-elf/bin/../lib/gcc/arm-elf/4.2.2/../../../../arm-elf/lib/interwork\libc.a(lib_a-iswspace.o)
 .glue_7        0x0011c194        0x0 c:/mcbuilder/resources/tools/arm-elf/bin/../lib/gcc/arm-elf/4.2.2/../../../../arm-elf/lib/interwork\libc.a(lib_a-locale.o)
 .glue_7        0x0011c194        0x0 c:/mcbuilder/resources/tools/arm-elf/bin/../lib/gcc/arm-elf/4.2.2/../../../../arm-elf/lib/interwork\libc.a(lib_a-makebuf.o)
 .glue_7        0x0011c194        0x0 c:/mcbuilder/resources/tools/arm-elf/bin/../lib/gcc/arm-elf/4.2.2/../../../../arm-elf/lib/interwork\libc.a(lib_a-mallocr.o)
 .glue_7        0x0011c194        0x0 c:/mcbuilder/resources/tools/arm-elf/bin/../lib/gcc/arm-elf/4.2.2/../../../../arm-elf/lib/interwork\libc.a(lib_a-mbrtowc.o)
 .glue_7        0x0011c194        0x0 c:/mcbuilder/resources/tools/arm-elf/bin/../lib/gcc/arm-elf/4.2.2/../../../../arm-elf/lib/interwork\libc.a(lib_a-mbtowc_r.o)
 .glue_7        0x0011c194        0x0 c:/mcbuilder/resources/tools/arm-elf/bin/../lib/gcc/arm-elf/4.2.2/../../../../arm-elf/lib/interwork\libc.a(lib_a-memchr.o)
 .glue_7        0x0011c194        0x0 c:/mcbuilder/resources/tools/arm-elf/bin/../lib/gcc/arm-elf/4.2.2/../../../../arm-elf/lib/interwork\libc.a(lib_a-memmove.o)
 .glue_7        0x0011c194        0x0 c:/mcbuilder/resources/tools/arm-elf/bin/../lib/gcc/arm-elf/4.2.2/../../../../arm-elf/lib/interwork\libc.a(lib_a-mlock.o)
 .glue_7        0x0011c194        0x0 c:/mcbuilder/resources/tools/arm-elf/bin/../lib/gcc/arm-elf/4.2.2/../../../../arm-elf/lib/interwork\libc.a(lib_a-mprec.o)
 .glue_7        0x0011c194        0x0 c:/mcbuilder/resources/tools/arm-elf/bin/../lib/gcc/arm-elf/4.2.2/../../../../arm-elf/lib/interwork\libc.a(lib_a-reallocr.o)
 .glue_7        0x0011c194        0x0 c:/mcbuilder/resources/tools/arm-elf/bin/../lib/gcc/arm-elf/4.2.2/../../../../arm-elf/lib/interwork\libc.a(lib_a-refill.o)
 .glue_7        0x0011c194        0x0 c:/mcbuilder/resources/tools/arm-elf/bin/../lib/gcc/arm-elf/4.2.2/../../../../arm-elf/lib/interwork\libc.a(lib_a-s_isinfd.o)
 .glue_7        0x0011c194        0x0 c:/mcbuilder/resources/tools/arm-elf/bin/../lib/gcc/arm-elf/4.2.2/../../../../arm-elf/lib/interwork\libc.a(lib_a-s_isnand.o)
 .glue_7        0x0011c194        0x0 c:/mcbuilder/resources/tools/arm-elf/bin/../lib/gcc/arm-elf/4.2.2/../../../../arm-elf/lib/interwork\libc.a(lib_a-sccl.o)
 .glue_7        0x0011c194        0x0 c:/mcbuilder/resources/tools/arm-elf/bin/../lib/gcc/arm-elf/4.2.2/../../../../arm-elf/lib/interwork\libc.a(lib_a-sf_nan.o)
 .glue_7        0x0011c194        0x0 c:/mcbuilder/resources/tools/arm-elf/bin/../lib/gcc/arm-elf/4.2.2/../../../../arm-elf/lib/interwork\libc.a(lib_a-stdio.o)
 .glue_7        0x0011c194        0x0 c:/mcbuilder/resources/tools/arm-elf/bin/../lib/gcc/arm-elf/4.2.2/../../../../arm-elf/lib/interwork\libc.a(lib_a-strtod.o)
 .glue_7        0x0011c194        0x0 c:/mcbuilder/resources/tools/arm-elf/bin/../lib/gcc/arm-elf/4.2.2/../../../../arm-elf/lib/interwork\libc.a(lib_a-strtoul.o)
 .glue_7        0x0011c194        0x0 c:/mcbuilder/resources/tools/arm-elf/bin/../lib/gcc/arm-elf/4.2.2/../../../../arm-elf/lib/interwork\libc.a(lib_a-syscalls.o)
 .glue_7        0x0011c194        0x0 c:/mcbuilder/resources/tools/arm-elf/bin/../lib/gcc/arm-elf/4.2.2/../../../../arm-elf/lib/interwork\libc.a(lib_a-ungetc.o)
 .glue_7        0x0011c194        0x0 c:/mcbuilder/resources/tools/arm-elf/bin/../lib/gcc/arm-elf/4.2.2/../../../../arm-elf/lib/interwork\libc.a(lib_a-callocr.o)
 .glue_7        0x0011c194        0x0 c:/mcbuilder/resources/tools/arm-elf/bin/../lib/gcc/arm-elf/4.2.2/../../../../arm-elf/lib/interwork\libc.a(lib_a-errno.o)
 .glue_7        0x0011c194        0x0 c:/mcbuilder/resources/tools/arm-elf/bin/../lib/gcc/arm-elf/4.2.2/../../../../arm-elf/lib/interwork\libc.a(lib_a-fclose.o)
 .glue_7        0x0011c194        0x0 c:/mcbuilder/resources/tools/arm-elf/bin/../lib/gcc/arm-elf/4.2.2/../../../../arm-elf/lib/interwork\libc.a(lib_a-gdtoa-gethex.o)
 .glue_7        0x0011c194        0x0 c:/mcbuilder/resources/tools/arm-elf/bin/../lib/gcc/arm-elf/4.2.2/../../../../arm-elf/lib/interwork\libc.a(lib_a-gdtoa-hexnan.o)
 .glue_7        0x0011c194        0x0 c:/mcbuilder/resources/tools/arm-elf/bin/../lib/gcc/arm-elf/4.2.2/interwork\libgcc.a(_addsubdf3.o)
 .glue_7        0x0011c194        0x0 c:/mcbuilder/resources/tools/arm-elf/bin/../lib/gcc/arm-elf/4.2.2/interwork\libgcc.a(_muldivdf3.o)
 .glue_7        0x0011c194        0x0 c:/mcbuilder/resources/tools/arm-elf/bin/../lib/gcc/arm-elf/4.2.2/interwork\libgcc.a(_cmpdf2.o)
 .glue_7        0x0011c194        0x0 c:/mcbuilder/resources/tools/arm-elf/bin/../lib/gcc/arm-elf/4.2.2/interwork\libgcc.a(_fixdfsi.o)
 .glue_7        0x0011c194        0x0 c:/mcbuilder/resources/tools/arm-elf/bin/../lib/gcc/arm-elf/4.2.2/interwork\libgcc.a(_fixunsdfsi.o)
 .glue_7        0x0011c194       0x84 c:/mcbuilder/resources/tools/arm-elf/bin/../lib/gcc/arm-elf/4.2.2/interwork\libgcc.a(_truncdfsf2.o)
                0x0011c20c                ___read_r_from_arm
                0x0011c200                ___write_r_from_arm
                0x0011c1ac                __xQueueGenericSendFromISR_from_arm
                0x0011c1b8                __vClearEMACTxBuffer_from_arm
                0x0011c1e8                ___close_r_from_arm
                0x0011c1dc                ___fstat_r_from_arm
                0x0011c1d0                ___sbrk_r_from_arm
                0x0011c194                __vTaskIncrementTick_from_arm
                0x0011c1c4                __xQueueReceiveFromISR_from_arm
                0x0011c1f4                ___lseek_r_from_arm
                0x0011c1a0                __vTaskSwitchContext_from_arm
 *(.glue_7t)
 .glue_7t       0x0011c218        0x0 C:\mcbuilder\cores\makecontroller\core\freertos\portable\GCC\ARM7_AT91SAM7S\portISR.o
 .glue_7t       0x0011c218        0x0 C:\mcbuilder\cores\makecontroller\core\makingthings\SAM7_EMAC_ISR.o
 .glue_7t       0x0011c218        0x0 C:\mcbuilder\cores\makecontroller\core\makingthings\USBIsr.o
 .glue_7t       0x0011c218        0x0 C:\mcbuilder\cores\makecontroller\core\startup\Cstartup_SAM7.o
 .glue_7t       0x0011c218        0x0 C:\mcbuilder\cores\makecontroller\core\makingthings\analogin_isr.o
 .glue_7t       0x0011c218        0x0 C:\mcbuilder\cores\makecontroller\core\makingthings\fasttimer_isr.o
 .glue_7t       0x0011c218        0x0 C:\mcbuilder\cores\makecontroller\core\makingthings\serial_isr.o
 .glue_7t       0x0011c218        0x0 C:\mcbuilder\cores\makecontroller\core\makingthings\timer_isr.o
 .glue_7t       0x0011c218        0x0 C:\mcbuilder\cores\makecontroller\libraries\appled\appled.o
 .glue_7t       0x0011c218        0x0 C:\mcbuilder\cores\makecontroller\libraries\webserver\webserver.o
 .glue_7t       0x0011c218        0x0 C:\mcbuilder\cores\makecontroller\core\freertos\tasks.o
 .glue_7t       0x0011c218        0x0 C:\mcbuilder\cores\makecontroller\core\freertos\queue.o
 .glue_7t       0x0011c218        0x0 C:\mcbuilder\cores\makecontroller\core\freertos\list.o
 .glue_7t       0x0011c218        0x0 C:\mcbuilder\cores\makecontroller\core\freertos\portable\GCC\ARM7_AT91SAM7S\port.o
 .glue_7t       0x0011c218        0x0 C:\mcbuilder\cores\makecontroller\core\startup\extras.o
 .glue_7t       0x0011c218        0x0 C:\mcbuilder\cores\makecontroller\core\freertos\portable\MemMang\heap_2.o
 .glue_7t       0x0011c218        0x0 C:\mcbuilder\cores\makecontroller\core\makingthings\main.o
 .glue_7t       0x0011c218        0x0 C:\mcbuilder\cores\makecontroller\core\makingthings\eeprom.o
 .glue_7t       0x0011c218        0x0 C:\mcbuilder\cores\makecontroller\core\makingthings\analogin.o
 .glue_7t       0x0011c218        0x0 C:\mcbuilder\cores\makecontroller\core\makingthings\serial.o
 .glue_7t       0x0011c218        0x0 C:\mcbuilder\cores\makecontroller\core\makingthings\pwm.o
 .glue_7t       0x0011c218        0x0 C:\mcbuilder\cores\makecontroller\core\makingthings\spi.o
 .glue_7t       0x0011c218        0x0 C:\mcbuilder\cores\makecontroller\core\makingthings\USB-CDC.o
 .glue_7t       0x0011c218        0x0 C:\mcbuilder\cores\makecontroller\core\makingthings\rtos.o
 .glue_7t       0x0011c218        0x0 C:\mcbuilder\cores\makecontroller\core\makingthings\usb.o
 .glue_7t       0x0011c218        0x0 C:\mcbuilder\cores\makecontroller\core\makingthings\network.o
 .glue_7t       0x0011c218        0x0 C:\mcbuilder\cores\makecontroller\core\makingthings\system.o
 .glue_7t       0x0011c218        0x0 C:\mcbuilder\cores\makecontroller\core\makingthings\io.o
 .glue_7t       0x0011c218        0x0 C:\mcbuilder\cores\makecontroller\core\makingthings\led.o
 .glue_7t       0x0011c218        0x0 C:\mcbuilder\cores\makecontroller\core\makingthings\timer.o
 .glue_7t       0x0011c218        0x0 C:\mcbuilder\cores\makecontroller\core\makingthings\fasttimer.o
 .glue_7t       0x0011c218        0x0 C:\mcbuilder\cores\makecontroller\core\makingthings\debugosc.o
 .glue_7t       0x0011c218        0x0 C:\mcbuilder\cores\makecontroller\core\lwip\src\core\tcp_out.o
 .glue_7t       0x0011c218        0x0 C:\mcbuilder\cores\makecontroller\core\lwip\src\core\ipv4\inet.o
 .glue_7t       0x0011c218        0x0 C:\mcbuilder\cores\makecontroller\core\lwip\src\core\mem.o
 .glue_7t       0x0011c218        0x0 C:\mcbuilder\cores\makecontroller\core\lwip\src\core\memp.o
 .glue_7t       0x0011c218        0x0 C:\mcbuilder\cores\makecontroller\core\lwip\src\core\netif.o
 .glue_7t       0x0011c218        0x0 C:\mcbuilder\cores\makecontroller\core\lwip\src\core\pbuf.o
 .glue_7t       0x0011c218        0x0 C:\mcbuilder\cores\makecontroller\core\lwip\src\core\raw.o
 .glue_7t       0x0011c218        0x0 C:\mcbuilder\cores\makecontroller\core\lwip\src\core\stats.o
 .glue_7t       0x0011c218        0x0 C:\mcbuilder\cores\makecontroller\core\lwip\src\core\sys.o
 .glue_7t       0x0011c218        0x0 C:\mcbuilder\cores\makecontroller\core\lwip\src\core\tcp.o
 .glue_7t       0x0011c218        0x0 C:\mcbuilder\cores\makecontroller\core\lwip\src\core\tcp_in.o
 .glue_7t       0x0011c218        0x0 C:\mcbuilder\cores\makecontroller\core\lwip\src\core\init.o
 .glue_7t       0x0011c218        0x0 C:\mcbuilder\cores\makecontroller\core\lwip\src\core\ipv4\ip.o
 .glue_7t       0x0011c218        0x0 C:\mcbuilder\cores\makecontroller\core\lwip\src\core\ipv4\ip_addr.o
 .glue_7t       0x0011c218        0x0 C:\mcbuilder\cores\makecontroller\core\lwip\src\core\ipv4\icmp.o
 .glue_7t       0x0011c218        0x0 C:\mcbuilder\cores\makecontroller\core\lwip\src\core\ipv4\inet_chksum.o
 .glue_7t       0x0011c218        0x0 C:\mcbuilder\cores\makecontroller\core\lwip\src\core\dhcp.o
 .glue_7t       0x0011c218        0x0 C:\mcbuilder\cores\makecontroller\core\lwip\src\core\dns.o
 .glue_7t       0x0011c218        0x0 C:\mcbuilder\cores\makecontroller\core\lwip\src\api\tcpip.o
 .glue_7t       0x0011c218        0x0 C:\mcbuilder\cores\makecontroller\core\lwip\src\api\api_msg.o
 .glue_7t       0x0011c218        0x0 C:\mcbuilder\cores\makecontroller\core\lwip\src\api\err.o
 .glue_7t       0x0011c218        0x0 C:\mcbuilder\cores\makecontroller\core\lwip\src\api\netbuf.o
 .glue_7t       0x0011c218        0x0 C:\mcbuilder\cores\makecontroller\core\lwip\src\api\api_lib.o
 .glue_7t       0x0011c218        0x0 C:\mcbuilder\cores\makecontroller\core\lwip\src\netif\etharp.o
 .glue_7t       0x0011c218        0x0 C:\mcbuilder\cores\makecontroller\core\lwip\contrib\port\FreeRTOS\AT91SAM7X\sys_arch.o
 .glue_7t       0x0011c218        0x0 C:\mcbuilder\cores\makecontroller\core\lwip\src\netif\ethernetif.o
 .glue_7t       0x0011c218        0x0 C:\mcbuilder\cores\makecontroller\core\makingthings\SAM7_EMAC.o
 .glue_7t       0x0011c218        0x0 C:\mcbuilder\cores\makecontroller\core\lwip\src\core\udp.o
 .glue_7t       0x0011c218        0x0 C:\mcbuilder\cores\makecontroller\core\lwip\src\core\ipv4\ip_frag.o
 .glue_7t       0x0011c218        0x0 C:\mcbuilder\cores\makecontroller\core\makingthings\osc.o
 .glue_7t       0x0011c218        0x0 C:\mcbuilder\cores\makecontroller\core\makingthings\osc_patternmatch.o
 .glue_7t       0x0011c218        0x0 C:\Sync\Desktop\todo\AinToWeb_public\AinToWeb_public.o
 .glue_7t       0x0011c218        0x0 C:\Users\bjepson\AppData\Local\Temp/ccXGDjSg.o
 .glue_7t       0x0011c218        0x0 c:/mcbuilder/resources/tools/arm-elf/bin/../lib/gcc/arm-elf/4.2.2/interwork\libgcc.a(_udivsi3.o)
 .glue_7t       0x0011c218        0x0 c:/mcbuilder/resources/tools/arm-elf/bin/../lib/gcc/arm-elf/4.2.2/interwork\libgcc.a(_divsi3.o)
 .glue_7t       0x0011c218        0x0 c:/mcbuilder/resources/tools/arm-elf/bin/../lib/gcc/arm-elf/4.2.2/interwork\libgcc.a(_umodsi3.o)
 .glue_7t       0x0011c218        0x0 c:/mcbuilder/resources/tools/arm-elf/bin/../lib/gcc/arm-elf/4.2.2/interwork\libgcc.a(_modsi3.o)
 .glue_7t       0x0011c218        0x0 c:/mcbuilder/resources/tools/arm-elf/bin/../lib/gcc/arm-elf/4.2.2/interwork\libgcc.a(_dvmd_tls.o)
 .glue_7t       0x0011c218        0x0 c:/mcbuilder/resources/tools/arm-elf/bin/../lib/gcc/arm-elf/4.2.2/../../../../arm-elf/lib/interwork\libc.a(lib_a-atoi.o)
 .glue_7t       0x0011c218        0x0 c:/mcbuilder/resources/tools/arm-elf/bin/../lib/gcc/arm-elf/4.2.2/../../../../arm-elf/lib/interwork\libc.a(lib_a-ctype_.o)
 .glue_7t       0x0011c218        0x0 c:/mcbuilder/resources/tools/arm-elf/bin/../lib/gcc/arm-elf/4.2.2/../../../../arm-elf/lib/interwork\libc.a(lib_a-memcpy.o)
 .glue_7t       0x0011c218        0x0 c:/mcbuilder/resources/tools/arm-elf/bin/../lib/gcc/arm-elf/4.2.2/../../../../arm-elf/lib/interwork\libc.a(lib_a-memset.o)
 .glue_7t       0x0011c218        0x0 c:/mcbuilder/resources/tools/arm-elf/bin/../lib/gcc/arm-elf/4.2.2/../../../../arm-elf/lib/interwork\libc.a(lib_a-snprintf.o)
 .glue_7t       0x0011c218        0x0 c:/mcbuilder/resources/tools/arm-elf/bin/../lib/gcc/arm-elf/4.2.2/../../../../arm-elf/lib/interwork\libc.a(lib_a-sprintf.o)
 .glue_7t       0x0011c218        0x0 c:/mcbuilder/resources/tools/arm-elf/bin/../lib/gcc/arm-elf/4.2.2/../../../../arm-elf/lib/interwork\libc.a(lib_a-sscanf.o)
 .glue_7t       0x0011c218        0x0 c:/mcbuilder/resources/tools/arm-elf/bin/../lib/gcc/arm-elf/4.2.2/../../../../arm-elf/lib/interwork\libc.a(lib_a-strcat.o)
 .glue_7t       0x0011c218        0x0 c:/mcbuilder/resources/tools/arm-elf/bin/../lib/gcc/arm-elf/4.2.2/../../../../arm-elf/lib/interwork\libc.a(lib_a-strchr.o)
 .glue_7t       0x0011c218        0x0 c:/mcbuilder/resources/tools/arm-elf/bin/../lib/gcc/arm-elf/4.2.2/../../../../arm-elf/lib/interwork\libc.a(lib_a-strcmp.o)
 .glue_7t       0x0011c218        0x0 c:/mcbuilder/resources/tools/arm-elf/bin/../lib/gcc/arm-elf/4.2.2/../../../../arm-elf/lib/interwork\libc.a(lib_a-strcpy.o)
 .glue_7t       0x0011c218        0x0 c:/mcbuilder/resources/tools/arm-elf/bin/../lib/gcc/arm-elf/4.2.2/../../../../arm-elf/lib/interwork\libc.a(lib_a-strlen.o)
 .glue_7t       0x0011c218        0x0 c:/mcbuilder/resources/tools/arm-elf/bin/../lib/gcc/arm-elf/4.2.2/../../../../arm-elf/lib/interwork\libc.a(lib_a-strncmp.o)
 .glue_7t       0x0011c218        0x0 c:/mcbuilder/resources/tools/arm-elf/bin/../lib/gcc/arm-elf/4.2.2/../../../../arm-elf/lib/interwork\libc.a(lib_a-strncpy.o)
 .glue_7t       0x0011c218        0x0 c:/mcbuilder/resources/tools/arm-elf/bin/../lib/gcc/arm-elf/4.2.2/../../../../arm-elf/lib/interwork\libc.a(lib_a-strtol.o)
 .glue_7t       0x0011c218        0x0 c:/mcbuilder/resources/tools/arm-elf/bin/../lib/gcc/arm-elf/4.2.2/../../../../arm-elf/lib/interwork\libc.a(lib_a-vfprintf.o)
 .glue_7t       0x0011c218        0x0 c:/mcbuilder/resources/tools/arm-elf/bin/../lib/gcc/arm-elf/4.2.2/../../../../arm-elf/lib/interwork\libc.a(lib_a-vfscanf.o)
 .glue_7t       0x0011c218        0x0 c:/mcbuilder/resources/tools/arm-elf/bin/../lib/gcc/arm-elf/4.2.2/../../../../arm-elf/lib/interwork\libc.a(lib_a-wsetup.o)
 .glue_7t       0x0011c218        0x0 c:/mcbuilder/resources/tools/arm-elf/bin/../lib/gcc/arm-elf/4.2.2/../../../../arm-elf/lib/interwork\libc.a(lib_a-dtoa.o)
 .glue_7t       0x0011c218        0x0 c:/mcbuilder/resources/tools/arm-elf/bin/../lib/gcc/arm-elf/4.2.2/../../../../arm-elf/lib/interwork\libc.a(lib_a-fflush.o)
 .glue_7t       0x0011c218        0x0 c:/mcbuilder/resources/tools/arm-elf/bin/../lib/gcc/arm-elf/4.2.2/../../../../arm-elf/lib/interwork\libc.a(lib_a-findfp.o)
 .glue_7t       0x0011c218        0x0 c:/mcbuilder/resources/tools/arm-elf/bin/../lib/gcc/arm-elf/4.2.2/../../../../arm-elf/lib/interwork\libc.a(lib_a-fread.o)
 .glue_7t       0x0011c218        0x0 c:/mcbuilder/resources/tools/arm-elf/bin/../lib/gcc/arm-elf/4.2.2/../../../../arm-elf/lib/interwork\libc.a(lib_a-freer.o)
 .glue_7t       0x0011c218        0x0 c:/mcbuilder/resources/tools/arm-elf/bin/../lib/gcc/arm-elf/4.2.2/../../../../arm-elf/lib/interwork\libc.a(lib_a-fvwrite.o)
 .glue_7t       0x0011c218        0x0 c:/mcbuilder/resources/tools/arm-elf/bin/../lib/gcc/arm-elf/4.2.2/../../../../arm-elf/lib/interwork\libc.a(lib_a-fwalk.o)
 .glue_7t       0x0011c218        0x0 c:/mcbuilder/resources/tools/arm-elf/bin/../lib/gcc/arm-elf/4.2.2/../../../../arm-elf/lib/interwork\libc.a(lib_a-impure.o)
 .glue_7t       0x0011c218        0x0 c:/mcbuilder/resources/tools/arm-elf/bin/../lib/gcc/arm-elf/4.2.2/../../../../arm-elf/lib/interwork\libc.a(lib_a-iswspace.o)
 .glue_7t       0x0011c218        0x0 c:/mcbuilder/resources/tools/arm-elf/bin/../lib/gcc/arm-elf/4.2.2/../../../../arm-elf/lib/interwork\libc.a(lib_a-locale.o)
 .glue_7t       0x0011c218        0x0 c:/mcbuilder/resources/tools/arm-elf/bin/../lib/gcc/arm-elf/4.2.2/../../../../arm-elf/lib/interwork\libc.a(lib_a-makebuf.o)
 .glue_7t       0x0011c218        0x0 c:/mcbuilder/resources/tools/arm-elf/bin/../lib/gcc/arm-elf/4.2.2/../../../../arm-elf/lib/interwork\libc.a(lib_a-mallocr.o)
 .glue_7t       0x0011c218        0x0 c:/mcbuilder/resources/tools/arm-elf/bin/../lib/gcc/arm-elf/4.2.2/../../../../arm-elf/lib/interwork\libc.a(lib_a-mbrtowc.o)
 .glue_7t       0x0011c218        0x0 c:/mcbuilder/resources/tools/arm-elf/bin/../lib/gcc/arm-elf/4.2.2/../../../../arm-elf/lib/interwork\libc.a(lib_a-mbtowc_r.o)
 .glue_7t       0x0011c218        0x0 c:/mcbuilder/resources/tools/arm-elf/bin/../lib/gcc/arm-elf/4.2.2/../../../../arm-elf/lib/interwork\libc.a(lib_a-memchr.o)
 .glue_7t       0x0011c218        0x0 c:/mcbuilder/resources/tools/arm-elf/bin/../lib/gcc/arm-elf/4.2.2/../../../../arm-elf/lib/interwork\libc.a(lib_a-memmove.o)
 .glue_7t       0x0011c218        0x0 c:/mcbuilder/resources/tools/arm-elf/bin/../lib/gcc/arm-elf/4.2.2/../../../../arm-elf/lib/interwork\libc.a(lib_a-mlock.o)
 .glue_7t       0x0011c218        0x0 c:/mcbuilder/resources/tools/arm-elf/bin/../lib/gcc/arm-elf/4.2.2/../../../../arm-elf/lib/interwork\libc.a(lib_a-mprec.o)
 .glue_7t       0x0011c218        0x0 c:/mcbuilder/resources/tools/arm-elf/bin/../lib/gcc/arm-elf/4.2.2/../../../../arm-elf/lib/interwork\libc.a(lib_a-reallocr.o)
 .glue_7t       0x0011c218        0x0 c:/mcbuilder/resources/tools/arm-elf/bin/../lib/gcc/arm-elf/4.2.2/../../../../arm-elf/lib/interwork\libc.a(lib_a-refill.o)
 .glue_7t       0x0011c218        0x0 c:/mcbuilder/resources/tools/arm-elf/bin/../lib/gcc/arm-elf/4.2.2/../../../../arm-elf/lib/interwork\libc.a(lib_a-s_isinfd.o)
 .glue_7t       0x0011c218        0x0 c:/mcbuilder/resources/tools/arm-elf/bin/../lib/gcc/arm-elf/4.2.2/../../../../arm-elf/lib/interwork\libc.a(lib_a-s_isnand.o)
 .glue_7t       0x0011c218        0x0 c:/mcbuilder/resources/tools/arm-elf/bin/../lib/gcc/arm-elf/4.2.2/../../../../arm-elf/lib/interwork\libc.a(lib_a-sccl.o)
 .glue_7t       0x0011c218        0x0 c:/mcbuilder/resources/tools/arm-elf/bin/../lib/gcc/arm-elf/4.2.2/../../../../arm-elf/lib/interwork\libc.a(lib_a-sf_nan.o)
 .glue_7t       0x0011c218        0x0 c:/mcbuilder/resources/tools/arm-elf/bin/../lib/gcc/arm-elf/4.2.2/../../../../arm-elf/lib/interwork\libc.a(lib_a-stdio.o)
 .glue_7t       0x0011c218        0x0 c:/mcbuilder/resources/tools/arm-elf/bin/../lib/gcc/arm-elf/4.2.2/../../../../arm-elf/lib/interwork\libc.a(lib_a-strtod.o)
 .glue_7t       0x0011c218        0x0 c:/mcbuilder/resources/tools/arm-elf/bin/../lib/gcc/arm-elf/4.2.2/../../../../arm-elf/lib/interwork\libc.a(lib_a-strtoul.o)
 .glue_7t       0x0011c218        0x0 c:/mcbuilder/resources/tools/arm-elf/bin/../lib/gcc/arm-elf/4.2.2/../../../../arm-elf/lib/interwork\libc.a(lib_a-syscalls.o)
 .glue_7t       0x0011c218        0x0 c:/mcbuilder/resources/tools/arm-elf/bin/../lib/gcc/arm-elf/4.2.2/../../../../arm-elf/lib/interwork\libc.a(lib_a-ungetc.o)
 .glue_7t       0x0011c218        0x0 c:/mcbuilder/resources/tools/arm-elf/bin/../lib/gcc/arm-elf/4.2.2/../../../../arm-elf/lib/interwork\libc.a(lib_a-callocr.o)
 .glue_7t       0x0011c218        0x0 c:/mcbuilder/resources/tools/arm-elf/bin/../lib/gcc/arm-elf/4.2.2/../../../../arm-elf/lib/interwork\libc.a(lib_a-errno.o)
 .glue_7t       0x0011c218        0x0 c:/mcbuilder/resources/tools/arm-elf/bin/../lib/gcc/arm-elf/4.2.2/../../../../arm-elf/lib/interwork\libc.a(lib_a-fclose.o)
 .glue_7t       0x0011c218        0x0 c:/mcbuilder/resources/tools/arm-elf/bin/../lib/gcc/arm-elf/4.2.2/../../../../arm-elf/lib/interwork\libc.a(lib_a-gdtoa-gethex.o)
 .glue_7t       0x0011c218        0x0 c:/mcbuilder/resources/tools/arm-elf/bin/../lib/gcc/arm-elf/4.2.2/../../../../arm-elf/lib/interwork\libc.a(lib_a-gdtoa-hexnan.o)
 .glue_7t       0x0011c218        0x0 c:/mcbuilder/resources/tools/arm-elf/bin/../lib/gcc/arm-elf/4.2.2/interwork\libgcc.a(_addsubdf3.o)
 .glue_7t       0x0011c218        0x0 c:/mcbuilder/resources/tools/arm-elf/bin/../lib/gcc/arm-elf/4.2.2/interwork\libgcc.a(_muldivdf3.o)
 .glue_7t       0x0011c218        0x0 c:/mcbuilder/resources/tools/arm-elf/bin/../lib/gcc/arm-elf/4.2.2/interwork\libgcc.a(_cmpdf2.o)
 .glue_7t       0x0011c218        0x0 c:/mcbuilder/resources/tools/arm-elf/bin/../lib/gcc/arm-elf/4.2.2/interwork\libgcc.a(_fixdfsi.o)
 .glue_7t       0x0011c218        0x0 c:/mcbuilder/resources/tools/arm-elf/bin/../lib/gcc/arm-elf/4.2.2/interwork\libgcc.a(_fixunsdfsi.o)
 .glue_7t       0x0011c218       0xb8 c:/mcbuilder/resources/tools/arm-elf/bin/../lib/gcc/arm-elf/4.2.2/interwork\libgcc.a(_truncdfsf2.o)
                0x0011c23c                __strcpy_change_to_arm
                0x0011c254                __vPortEnterCritical_change_to_arm
                0x0011c270                __memset_from_thumb
                0x0011c29c                ____modsi3_change_to_arm
                0x0011c2a8                __sscanf_from_thumb
                0x0011c2a4                __strcmp_change_to_arm
                0x0011c274                __memset_change_to_arm
                0x0011c2b4                __vPortDisableAllInterrupts_change_to_arm
                0x0011c278                __strncpy_from_thumb
                0x0011c25c                __vPortExitCritical_change_to_arm
                0x0011c224                __strlen_change_to_arm
                0x0011c21c                __strchr_change_to_arm
                0x0011c280                __memcpy_from_thumb
                0x0011c288                __vPortISRStartFirstTask_from_thumb
                0x0011c22c                __strncmp_change_to_arm
                0x0011c2c4                ____umodsi3_change_to_arm
                0x0011c260                __sprintf_from_thumb
                0x0011c268                __vPortDisableInterruptsFromThumb_from_thumb
                0x0011c238                __strcpy_from_thumb
                0x0011c298                ____modsi3_from_thumb
                0x0011c258                __vPortExitCritical_from_thumb
                0x0011c2bc                ____udivsi3_change_to_arm
                0x0011c218                __strchr_from_thumb
                0x0011c230                __atoi_from_thumb
                0x0011c240                __strcat_from_thumb
                0x0011c2cc                __vPassEMACSemaphore_change_to_arm
                0x0011c2c0                ____umodsi3_from_thumb
                0x0011c2b0                __vPortDisableAllInterrupts_from_thumb
                0x0011c290                ____divsi3_from_thumb
                0x0011c234                __atoi_change_to_arm
                0x0011c24c                __snprintf_change_to_arm
                0x0011c2c8                __vPassEMACSemaphore_from_thumb
                0x0011c250                __vPortEnterCritical_from_thumb
                0x0011c2b8                ____udivsi3_from_thumb
                0x0011c28c                __vPortISRStartFirstTask_change_to_arm
                0x0011c264                __sprintf_change_to_arm
                0x0011c26c                __vPortDisableInterruptsFromThumb_change_to_arm
                0x0011c244                __strcat_change_to_arm
                0x0011c220                __strlen_from_thumb
                0x0011c248                __snprintf_from_thumb
                0x0011c2ac                __sscanf_change_to_arm
                0x0011c284                __memcpy_change_to_arm
                0x0011c2a0                __strcmp_from_thumb
                0x0011c27c                __strncpy_change_to_arm
                0x0011c228                __strncmp_from_thumb
                0x0011c294                ____divsi3_change_to_arm
                0x0011c2d0                __end_of_text__ = .

.vfp11_veneer   0x0011c2d0        0x0
 .vfp11_veneer  0x0011c2d0        0x0 C:\mcbuilder\cores\makecontroller\core\freertos\portable\GCC\ARM7_AT91SAM7S\portISR.o
 .vfp11_veneer  0x0011c2d0        0x0 C:\mcbuilder\cores\makecontroller\core\makingthings\SAM7_EMAC_ISR.o
 .vfp11_veneer  0x0011c2d0        0x0 C:\mcbuilder\cores\makecontroller\core\makingthings\USBIsr.o
 .vfp11_veneer  0x0011c2d0        0x0 C:\mcbuilder\cores\makecontroller\core\startup\Cstartup_SAM7.o
 .vfp11_veneer  0x0011c2d0        0x0 C:\mcbuilder\cores\makecontroller\core\makingthings\analogin_isr.o
 .vfp11_veneer  0x0011c2d0        0x0 C:\mcbuilder\cores\makecontroller\core\makingthings\fasttimer_isr.o
 .vfp11_veneer  0x0011c2d0        0x0 C:\mcbuilder\cores\makecontroller\core\makingthings\serial_isr.o
 .vfp11_veneer  0x0011c2d0        0x0 C:\mcbuilder\cores\makecontroller\core\makingthings\timer_isr.o
 .vfp11_veneer  0x0011c2d0        0x0 C:\mcbuilder\cores\makecontroller\libraries\appled\appled.o
 .vfp11_veneer  0x0011c2d0        0x0 C:\mcbuilder\cores\makecontroller\libraries\webserver\webserver.o
 .vfp11_veneer  0x0011c2d0        0x0 C:\mcbuilder\cores\makecontroller\core\freertos\tasks.o
 .vfp11_veneer  0x0011c2d0        0x0 C:\mcbuilder\cores\makecontroller\core\freertos\queue.o
 .vfp11_veneer  0x0011c2d0        0x0 C:\mcbuilder\cores\makecontroller\core\freertos\list.o
 .vfp11_veneer  0x0011c2d0        0x0 C:\mcbuilder\cores\makecontroller\core\freertos\portable\GCC\ARM7_AT91SAM7S\port.o
 .vfp11_veneer  0x0011c2d0        0x0 C:\mcbuilder\cores\makecontroller\core\startup\extras.o
 .vfp11_veneer  0x0011c2d0        0x0 C:\mcbuilder\cores\makecontroller\core\freertos\portable\MemMang\heap_2.o
 .vfp11_veneer  0x0011c2d0        0x0 C:\mcbuilder\cores\makecontroller\core\makingthings\main.o
 .vfp11_veneer  0x0011c2d0        0x0 C:\mcbuilder\cores\makecontroller\core\makingthings\eeprom.o
 .vfp11_veneer  0x0011c2d0        0x0 C:\mcbuilder\cores\makecontroller\core\makingthings\analogin.o
 .vfp11_veneer  0x0011c2d0        0x0 C:\mcbuilder\cores\makecontroller\core\makingthings\serial.o
 .vfp11_veneer  0x0011c2d0        0x0 C:\mcbuilder\cores\makecontroller\core\makingthings\pwm.o
 .vfp11_veneer  0x0011c2d0        0x0 C:\mcbuilder\cores\makecontroller\core\makingthings\spi.o
 .vfp11_veneer  0x0011c2d0        0x0 C:\mcbuilder\cores\makecontroller\core\makingthings\USB-CDC.o
 .vfp11_veneer  0x0011c2d0        0x0 C:\mcbuilder\cores\makecontroller\core\makingthings\rtos.o
 .vfp11_veneer  0x0011c2d0        0x0 C:\mcbuilder\cores\makecontroller\core\makingthings\usb.o
 .vfp11_veneer  0x0011c2d0        0x0 C:\mcbuilder\cores\makecontroller\core\makingthings\network.o
 .vfp11_veneer  0x0011c2d0        0x0 C:\mcbuilder\cores\makecontroller\core\makingthings\system.o
 .vfp11_veneer  0x0011c2d0        0x0 C:\mcbuilder\cores\makecontroller\core\makingthings\io.o
 .vfp11_veneer  0x0011c2d0        0x0 C:\mcbuilder\cores\makecontroller\core\makingthings\led.o
 .vfp11_veneer  0x0011c2d0        0x0 C:\mcbuilder\cores\makecontroller\core\makingthings\timer.o
 .vfp11_veneer  0x0011c2d0        0x0 C:\mcbuilder\cores\makecontroller\core\makingthings\fasttimer.o
 .vfp11_veneer  0x0011c2d0        0x0 C:\mcbuilder\cores\makecontroller\core\makingthings\debugosc.o
 .vfp11_veneer  0x0011c2d0        0x0 C:\mcbuilder\cores\makecontroller\core\lwip\src\core\tcp_out.o
 .vfp11_veneer  0x0011c2d0        0x0 C:\mcbuilder\cores\makecontroller\core\lwip\src\core\ipv4\inet.o
 .vfp11_veneer  0x0011c2d0        0x0 C:\mcbuilder\cores\makecontroller\core\lwip\src\core\mem.o
 .vfp11_veneer  0x0011c2d0        0x0 C:\mcbuilder\cores\makecontroller\core\lwip\src\core\memp.o
 .vfp11_veneer  0x0011c2d0        0x0 C:\mcbuilder\cores\makecontroller\core\lwip\src\core\netif.o
 .vfp11_veneer  0x0011c2d0        0x0 C:\mcbuilder\cores\makecontroller\core\lwip\src\core\pbuf.o
 .vfp11_veneer  0x0011c2d0        0x0 C:\mcbuilder\cores\makecontroller\core\lwip\src\core\raw.o
 .vfp11_veneer  0x0011c2d0        0x0 C:\mcbuilder\cores\makecontroller\core\lwip\src\core\stats.o
 .vfp11_veneer  0x0011c2d0        0x0 C:\mcbuilder\cores\makecontroller\core\lwip\src\core\sys.o
 .vfp11_veneer  0x0011c2d0        0x0 C:\mcbuilder\cores\makecontroller\core\lwip\src\core\tcp.o
 .vfp11_veneer  0x0011c2d0        0x0 C:\mcbuilder\cores\makecontroller\core\lwip\src\core\tcp_in.o
 .vfp11_veneer  0x0011c2d0        0x0 C:\mcbuilder\cores\makecontroller\core\lwip\src\core\init.o
 .vfp11_veneer  0x0011c2d0        0x0 C:\mcbuilder\cores\makecontroller\core\lwip\src\core\ipv4\ip.o
 .vfp11_veneer  0x0011c2d0        0x0 C:\mcbuilder\cores\makecontroller\core\lwip\src\core\ipv4\ip_addr.o
 .vfp11_veneer  0x0011c2d0        0x0 C:\mcbuilder\cores\makecontroller\core\lwip\src\core\ipv4\icmp.o
 .vfp11_veneer  0x0011c2d0        0x0 C:\mcbuilder\cores\makecontroller\core\lwip\src\core\ipv4\inet_chksum.o
 .vfp11_veneer  0x0011c2d0        0x0 C:\mcbuilder\cores\makecontroller\core\lwip\src\core\dhcp.o
 .vfp11_veneer  0x0011c2d0        0x0 C:\mcbuilder\cores\makecontroller\core\lwip\src\core\dns.o
 .vfp11_veneer  0x0011c2d0        0x0 C:\mcbuilder\cores\makecontroller\core\lwip\src\api\tcpip.o
 .vfp11_veneer  0x0011c2d0        0x0 C:\mcbuilder\cores\makecontroller\core\lwip\src\api\api_msg.o
 .vfp11_veneer  0x0011c2d0        0x0 C:\mcbuilder\cores\makecontroller\core\lwip\src\api\err.o
 .vfp11_veneer  0x0011c2d0        0x0 C:\mcbuilder\cores\makecontroller\core\lwip\src\api\netbuf.o
 .vfp11_veneer  0x0011c2d0        0x0 C:\mcbuilder\cores\makecontroller\core\lwip\src\api\api_lib.o
 .vfp11_veneer  0x0011c2d0        0x0 C:\mcbuilder\cores\makecontroller\core\lwip\src\netif\etharp.o
 .vfp11_veneer  0x0011c2d0        0x0 C:\mcbuilder\cores\makecontroller\core\lwip\contrib\port\FreeRTOS\AT91SAM7X\sys_arch.o
 .vfp11_veneer  0x0011c2d0        0x0 C:\mcbuilder\cores\makecontroller\core\lwip\src\netif\ethernetif.o
 .vfp11_veneer  0x0011c2d0        0x0 C:\mcbuilder\cores\makecontroller\core\makingthings\SAM7_EMAC.o
 .vfp11_veneer  0x0011c2d0        0x0 C:\mcbuilder\cores\makecontroller\core\lwip\src\core\udp.o
 .vfp11_veneer  0x0011c2d0        0x0 C:\mcbuilder\cores\makecontroller\core\lwip\src\core\ipv4\ip_frag.o
 .vfp11_veneer  0x0011c2d0        0x0 C:\mcbuilder\cores\makecontroller\core\makingthings\osc.o
 .vfp11_veneer  0x0011c2d0        0x0 C:\mcbuilder\cores\makecontroller\core\makingthings\osc_patternmatch.o
 .vfp11_veneer  0x0011c2d0        0x0 C:\Sync\Desktop\todo\AinToWeb_public\AinToWeb_public.o
 .vfp11_veneer  0x0011c2d0        0x0 C:\Users\bjepson\AppData\Local\Temp/ccXGDjSg.o
 .vfp11_veneer  0x0011c2d0        0x0 c:/mcbuilder/resources/tools/arm-elf/bin/../lib/gcc/arm-elf/4.2.2/interwork\libgcc.a(_udivsi3.o)
 .vfp11_veneer  0x0011c2d0        0x0 c:/mcbuilder/resources/tools/arm-elf/bin/../lib/gcc/arm-elf/4.2.2/interwork\libgcc.a(_divsi3.o)
 .vfp11_veneer  0x0011c2d0        0x0 c:/mcbuilder/resources/tools/arm-elf/bin/../lib/gcc/arm-elf/4.2.2/interwork\libgcc.a(_umodsi3.o)
 .vfp11_veneer  0x0011c2d0        0x0 c:/mcbuilder/resources/tools/arm-elf/bin/../lib/gcc/arm-elf/4.2.2/interwork\libgcc.a(_modsi3.o)
 .vfp11_veneer  0x0011c2d0        0x0 c:/mcbuilder/resources/tools/arm-elf/bin/../lib/gcc/arm-elf/4.2.2/interwork\libgcc.a(_dvmd_tls.o)
 .vfp11_veneer  0x0011c2d0        0x0 c:/mcbuilder/resources/tools/arm-elf/bin/../lib/gcc/arm-elf/4.2.2/../../../../arm-elf/lib/interwork\libc.a(lib_a-atoi.o)
 .vfp11_veneer  0x0011c2d0        0x0 c:/mcbuilder/resources/tools/arm-elf/bin/../lib/gcc/arm-elf/4.2.2/../../../../arm-elf/lib/interwork\libc.a(lib_a-ctype_.o)
 .vfp11_veneer  0x0011c2d0        0x0 c:/mcbuilder/resources/tools/arm-elf/bin/../lib/gcc/arm-elf/4.2.2/../../../../arm-elf/lib/interwork\libc.a(lib_a-memcpy.o)
 .vfp11_veneer  0x0011c2d0        0x0 c:/mcbuilder/resources/tools/arm-elf/bin/../lib/gcc/arm-elf/4.2.2/../../../../arm-elf/lib/interwork\libc.a(lib_a-memset.o)
 .vfp11_veneer  0x0011c2d0        0x0 c:/mcbuilder/resources/tools/arm-elf/bin/../lib/gcc/arm-elf/4.2.2/../../../../arm-elf/lib/interwork\libc.a(lib_a-snprintf.o)
 .vfp11_veneer  0x0011c2d0        0x0 c:/mcbuilder/resources/tools/arm-elf/bin/../lib/gcc/arm-elf/4.2.2/../../../../arm-elf/lib/interwork\libc.a(lib_a-sprintf.o)
 .vfp11_veneer  0x0011c2d0        0x0 c:/mcbuilder/resources/tools/arm-elf/bin/../lib/gcc/arm-elf/4.2.2/../../../../arm-elf/lib/interwork\libc.a(lib_a-sscanf.o)
 .vfp11_veneer  0x0011c2d0        0x0 c:/mcbuilder/resources/tools/arm-elf/bin/../lib/gcc/arm-elf/4.2.2/../../../../arm-elf/lib/interwork\libc.a(lib_a-strcat.o)
 .vfp11_veneer  0x0011c2d0        0x0 c:/mcbuilder/resources/tools/arm-elf/bin/../lib/gcc/arm-elf/4.2.2/../../../../arm-elf/lib/interwork\libc.a(lib_a-strchr.o)
 .vfp11_veneer  0x0011c2d0        0x0 c:/mcbuilder/resources/tools/arm-elf/bin/../lib/gcc/arm-elf/4.2.2/../../../../arm-elf/lib/interwork\libc.a(lib_a-strcmp.o)
 .vfp11_veneer  0x0011c2d0        0x0 c:/mcbuilder/resources/tools/arm-elf/bin/../lib/gcc/arm-elf/4.2.2/../../../../arm-elf/lib/interwork\libc.a(lib_a-strcpy.o)
 .vfp11_veneer  0x0011c2d0        0x0 c:/mcbuilder/resources/tools/arm-elf/bin/../lib/gcc/arm-elf/4.2.2/../../../../arm-elf/lib/interwork\libc.a(lib_a-strlen.o)
 .vfp11_veneer  0x0011c2d0        0x0 c:/mcbuilder/resources/tools/arm-elf/bin/../lib/gcc/arm-elf/4.2.2/../../../../arm-elf/lib/interwork\libc.a(lib_a-strncmp.o)
 .vfp11_veneer  0x0011c2d0        0x0 c:/mcbuilder/resources/tools/arm-elf/bin/../lib/gcc/arm-elf/4.2.2/../../../../arm-elf/lib/interwork\libc.a(lib_a-strncpy.o)
 .vfp11_veneer  0x0011c2d0        0x0 c:/mcbuilder/resources/tools/arm-elf/bin/../lib/gcc/arm-elf/4.2.2/../../../../arm-elf/lib/interwork\libc.a(lib_a-strtol.o)
 .vfp11_veneer  0x0011c2d0        0x0 c:/mcbuilder/resources/tools/arm-elf/bin/../lib/gcc/arm-elf/4.2.2/../../../../arm-elf/lib/interwork\libc.a(lib_a-vfprintf.o)
 .vfp11_veneer  0x0011c2d0        0x0 c:/mcbuilder/resources/tools/arm-elf/bin/../lib/gcc/arm-elf/4.2.2/../../../../arm-elf/lib/interwork\libc.a(lib_a-vfscanf.o)
 .vfp11_veneer  0x0011c2d0        0x0 c:/mcbuilder/resources/tools/arm-elf/bin/../lib/gcc/arm-elf/4.2.2/../../../../arm-elf/lib/interwork\libc.a(lib_a-wsetup.o)
 .vfp11_veneer  0x0011c2d0        0x0 c:/mcbuilder/resources/tools/arm-elf/bin/../lib/gcc/arm-elf/4.2.2/../../../../arm-elf/lib/interwork\libc.a(lib_a-dtoa.o)
 .vfp11_veneer  0x0011c2d0        0x0 c:/mcbuilder/resources/tools/arm-elf/bin/../lib/gcc/arm-elf/4.2.2/../../../../arm-elf/lib/interwork\libc.a(lib_a-fflush.o)
 .vfp11_veneer  0x0011c2d0        0x0 c:/mcbuilder/resources/tools/arm-elf/bin/../lib/gcc/arm-elf/4.2.2/../../../../arm-elf/lib/interwork\libc.a(lib_a-findfp.o)
 .vfp11_veneer  0x0011c2d0        0x0 c:/mcbuilder/resources/tools/arm-elf/bin/../lib/gcc/arm-elf/4.2.2/../../../../arm-elf/lib/interwork\libc.a(lib_a-fread.o)
 .vfp11_veneer  0x0011c2d0        0x0 c:/mcbuilder/resources/tools/arm-elf/bin/../lib/gcc/arm-elf/4.2.2/../../../../arm-elf/lib/interwork\libc.a(lib_a-freer.o)
 .vfp11_veneer  0x0011c2d0        0x0 c:/mcbuilder/resources/tools/arm-elf/bin/../lib/gcc/arm-elf/4.2.2/../../../../arm-elf/lib/interwork\libc.a(lib_a-fvwrite.o)
 .vfp11_veneer  0x0011c2d0        0x0 c:/mcbuilder/resources/tools/arm-elf/bin/../lib/gcc/arm-elf/4.2.2/../../../../arm-elf/lib/interwork\libc.a(lib_a-fwalk.o)
 .vfp11_veneer  0x0011c2d0        0x0 c:/mcbuilder/resources/tools/arm-elf/bin/../lib/gcc/arm-elf/4.2.2/../../../../arm-elf/lib/interwork\libc.a(lib_a-impure.o)
 .vfp11_veneer  0x0011c2d0        0x0 c:/mcbuilder/resources/tools/arm-elf/bin/../lib/gcc/arm-elf/4.2.2/../../../../arm-elf/lib/interwork\libc.a(lib_a-iswspace.o)
 .vfp11_veneer  0x0011c2d0        0x0 c:/mcbuilder/resources/tools/arm-elf/bin/../lib/gcc/arm-elf/4.2.2/../../../../arm-elf/lib/interwork\libc.a(lib_a-locale.o)
 .vfp11_veneer  0x0011c2d0        0x0 c:/mcbuilder/resources/tools/arm-elf/bin/../lib/gcc/arm-elf/4.2.2/../../../../arm-elf/lib/interwork\libc.a(lib_a-makebuf.o)
 .vfp11_veneer  0x0011c2d0        0x0 c:/mcbuilder/resources/tools/arm-elf/bin/../lib/gcc/arm-elf/4.2.2/../../../../arm-elf/lib/interwork\libc.a(lib_a-mallocr.o)
 .vfp11_veneer  0x0011c2d0        0x0 c:/mcbuilder/resources/tools/arm-elf/bin/../lib/gcc/arm-elf/4.2.2/../../../../arm-elf/lib/interwork\libc.a(lib_a-mbrtowc.o)
 .vfp11_veneer  0x0011c2d0        0x0 c:/mcbuilder/resources/tools/arm-elf/bin/../lib/gcc/arm-elf/4.2.2/../../../../arm-elf/lib/interwork\libc.a(lib_a-mbtowc_r.o)
 .vfp11_veneer  0x0011c2d0        0x0 c:/mcbuilder/resources/tools/arm-elf/bin/../lib/gcc/arm-elf/4.2.2/../../../../arm-elf/lib/interwork\libc.a(lib_a-memchr.o)
 .vfp11_veneer  0x0011c2d0        0x0 c:/mcbuilder/resources/tools/arm-elf/bin/../lib/gcc/arm-elf/4.2.2/../../../../arm-elf/lib/interwork\libc.a(lib_a-memmove.o)
 .vfp11_veneer  0x0011c2d0        0x0 c:/mcbuilder/resources/tools/arm-elf/bin/../lib/gcc/arm-elf/4.2.2/../../../../arm-elf/lib/interwork\libc.a(lib_a-mlock.o)
 .vfp11_veneer  0x0011c2d0        0x0 c:/mcbuilder/resources/tools/arm-elf/bin/../lib/gcc/arm-elf/4.2.2/../../../../arm-elf/lib/interwork\libc.a(lib_a-mprec.o)
 .vfp11_veneer  0x0011c2d0        0x0 c:/mcbuilder/resources/tools/arm-elf/bin/../lib/gcc/arm-elf/4.2.2/../../../../arm-elf/lib/interwork\libc.a(lib_a-reallocr.o)
 .vfp11_veneer  0x0011c2d0        0x0 c:/mcbuilder/resources/tools/arm-elf/bin/../lib/gcc/arm-elf/4.2.2/../../../../arm-elf/lib/interwork\libc.a(lib_a-refill.o)
 .vfp11_veneer  0x0011c2d0        0x0 c:/mcbuilder/resources/tools/arm-elf/bin/../lib/gcc/arm-elf/4.2.2/../../../../arm-elf/lib/interwork\libc.a(lib_a-s_isinfd.o)
 .vfp11_veneer  0x0011c2d0        0x0 c:/mcbuilder/resources/tools/arm-elf/bin/../lib/gcc/arm-elf/4.2.2/../../../../arm-elf/lib/interwork\libc.a(lib_a-s_isnand.o)
 .vfp11_veneer  0x0011c2d0        0x0 c:/mcbuilder/resources/tools/arm-elf/bin/../lib/gcc/arm-elf/4.2.2/../../../../arm-elf/lib/interwork\libc.a(lib_a-sccl.o)
 .vfp11_veneer  0x0011c2d0        0x0 c:/mcbuilder/resources/tools/arm-elf/bin/../lib/gcc/arm-elf/4.2.2/../../../../arm-elf/lib/interwork\libc.a(lib_a-sf_nan.o)
 .vfp11_veneer  0x0011c2d0        0x0 c:/mcbuilder/resources/tools/arm-elf/bin/../lib/gcc/arm-elf/4.2.2/../../../../arm-elf/lib/interwork\libc.a(lib_a-stdio.o)
 .vfp11_veneer  0x0011c2d0        0x0 c:/mcbuilder/resources/tools/arm-elf/bin/../lib/gcc/arm-elf/4.2.2/../../../../arm-elf/lib/interwork\libc.a(lib_a-strtod.o)
 .vfp11_veneer  0x0011c2d0        0x0 c:/mcbuilder/resources/tools/arm-elf/bin/../lib/gcc/arm-elf/4.2.2/../../../../arm-elf/lib/interwork\libc.a(lib_a-strtoul.o)
 .vfp11_veneer  0x0011c2d0        0x0 c:/mcbuilder/resources/tools/arm-elf/bin/../lib/gcc/arm-elf/4.2.2/../../../../arm-elf/lib/interwork\libc.a(lib_a-syscalls.o)
 .vfp11_veneer  0x0011c2d0        0x0 c:/mcbuilder/resources/tools/arm-elf/bin/../lib/gcc/arm-elf/4.2.2/../../../../arm-elf/lib/interwork\libc.a(lib_a-ungetc.o)
 .vfp11_veneer  0x0011c2d0        0x0 c:/mcbuilder/resources/tools/arm-elf/bin/../lib/gcc/arm-elf/4.2.2/../../../../arm-elf/lib/interwork\libc.a(lib_a-callocr.o)
 .vfp11_veneer  0x0011c2d0        0x0 c:/mcbuilder/resources/tools/arm-elf/bin/../lib/gcc/arm-elf/4.2.2/../../../../arm-elf/lib/interwork\libc.a(lib_a-errno.o)
 .vfp11_veneer  0x0011c2d0        0x0 c:/mcbuilder/resources/tools/arm-elf/bin/../lib/gcc/arm-elf/4.2.2/../../../../arm-elf/lib/interwork\libc.a(lib_a-fclose.o)
 .vfp11_veneer  0x0011c2d0        0x0 c:/mcbuilder/resources/tools/arm-elf/bin/../lib/gcc/arm-elf/4.2.2/../../../../arm-elf/lib/interwork\libc.a(lib_a-gdtoa-gethex.o)
 .vfp11_veneer  0x0011c2d0        0x0 c:/mcbuilder/resources/tools/arm-elf/bin/../lib/gcc/arm-elf/4.2.2/../../../../arm-elf/lib/interwork\libc.a(lib_a-gdtoa-hexnan.o)
 .vfp11_veneer  0x0011c2d0        0x0 c:/mcbuilder/resources/tools/arm-elf/bin/../lib/gcc/arm-elf/4.2.2/interwork\libgcc.a(_addsubdf3.o)
 .vfp11_veneer  0x0011c2d0        0x0 c:/mcbuilder/resources/tools/arm-elf/bin/../lib/gcc/arm-elf/4.2.2/interwork\libgcc.a(_muldivdf3.o)
 .vfp11_veneer  0x0011c2d0        0x0 c:/mcbuilder/resources/tools/arm-elf/bin/../lib/gcc/arm-elf/4.2.2/interwork\libgcc.a(_cmpdf2.o)
 .vfp11_veneer  0x0011c2d0        0x0 c:/mcbuilder/resources/tools/arm-elf/bin/../lib/gcc/arm-elf/4.2.2/interwork\libgcc.a(_fixdfsi.o)
 .vfp11_veneer  0x0011c2d0        0x0 c:/mcbuilder/resources/tools/arm-elf/bin/../lib/gcc/arm-elf/4.2.2/interwork\libgcc.a(_fixunsdfsi.o)
 .vfp11_veneer  0x0011c2d0        0x0 c:/mcbuilder/resources/tools/arm-elf/bin/../lib/gcc/arm-elf/4.2.2/interwork\libgcc.a(_truncdfsf2.o)

.data           0x00200000      0x868 load address 0x0011c2d0
                0x00200000                __data_beg__ = .
                0x0011c2d0                __data_beg_src__ = __end_of_text__
 *(.data)
 .data          0x00200000        0x4 C:\mcbuilder\cores\makecontroller\core\freertos\portable\GCC\ARM7_AT91SAM7S\portISR.o
                0x00200000                ulCriticalNesting
 .data          0x00200004        0x0 C:\mcbuilder\cores\makecontroller\core\makingthings\SAM7_EMAC_ISR.o
 .data          0x00200004        0x0 C:\mcbuilder\cores\makecontroller\core\makingthings\USBIsr.o
 .data          0x00200004        0x0 C:\mcbuilder\cores\makecontroller\core\startup\Cstartup_SAM7.o
 .data          0x00200004        0x0 C:\mcbuilder\cores\makecontroller\core\makingthings\analogin_isr.o
 .data          0x00200004        0x0 C:\mcbuilder\cores\makecontroller\core\makingthings\fasttimer_isr.o
 .data          0x00200004        0x0 C:\mcbuilder\cores\makecontroller\core\makingthings\serial_isr.o
 .data          0x00200004        0x0 C:\mcbuilder\cores\makecontroller\core\makingthings\timer_isr.o
 .data          0x00200004        0x0 C:\mcbuilder\cores\makecontroller\libraries\appled\appled.o
 .data          0x00200004        0x0 C:\mcbuilder\cores\makecontroller\libraries\webserver\webserver.o
 .data          0x00200004        0x4 C:\mcbuilder\cores\makecontroller\core\freertos\tasks.o
 .data          0x00200008        0x0 C:\mcbuilder\cores\makecontroller\core\freertos\queue.o
 .data          0x00200008        0x0 C:\mcbuilder\cores\makecontroller\core\freertos\list.o
 .data          0x00200008        0x0 C:\mcbuilder\cores\makecontroller\core\freertos\portable\GCC\ARM7_AT91SAM7S\port.o
 .data          0x00200008        0x0 C:\mcbuilder\cores\makecontroller\core\startup\extras.o
 .data          0x00200008        0x0 C:\mcbuilder\cores\makecontroller\core\freertos\portable\MemMang\heap_2.o
 .data          0x00200008        0x0 C:\mcbuilder\cores\makecontroller\core\makingthings\main.o
 .data          0x00200008        0x0 C:\mcbuilder\cores\makecontroller\core\makingthings\eeprom.o
 .data          0x00200008        0x0 C:\mcbuilder\cores\makecontroller\core\makingthings\analogin.o
 .data          0x00200008        0x0 C:\mcbuilder\cores\makecontroller\core\makingthings\serial.o
 .data          0x00200008        0x0 C:\mcbuilder\cores\makecontroller\core\makingthings\pwm.o
 .data          0x00200008        0x0 C:\mcbuilder\cores\makecontroller\core\makingthings\spi.o
 .data          0x00200008        0x0 C:\mcbuilder\cores\makecontroller\core\makingthings\USB-CDC.o
 .data          0x00200008        0x0 C:\mcbuilder\cores\makecontroller\core\makingthings\rtos.o
 .data          0x00200008        0x0 C:\mcbuilder\cores\makecontroller\core\makingthings\usb.o
 .data          0x00200008        0x4 C:\mcbuilder\cores\makecontroller\core\makingthings\network.o
                0x0020000b                emacETHADDR3
                0x0020000a                emacETHADDR2
                0x00200008                emacETHADDR0
                0x00200009                emacETHADDR1
 .data          0x0020000c        0x0 C:\mcbuilder\cores\makecontroller\core\makingthings\system.o
 .data          0x0020000c        0x0 C:\mcbuilder\cores\makecontroller\core\makingthings\io.o
 .data          0x0020000c        0x0 C:\mcbuilder\cores\makecontroller\core\makingthings\led.o
 .data          0x0020000c        0x0 C:\mcbuilder\cores\makecontroller\core\makingthings\timer.o
 .data          0x0020000c        0x0 C:\mcbuilder\cores\makecontroller\core\makingthings\fasttimer.o
 .data          0x0020000c        0x0 C:\mcbuilder\cores\makecontroller\core\makingthings\debugosc.o
 .data          0x0020000c        0x0 C:\mcbuilder\cores\makecontroller\core\lwip\src\core\tcp_out.o
 .data          0x0020000c        0x0 C:\mcbuilder\cores\makecontroller\core\lwip\src\core\ipv4\inet.o
 .data          0x0020000c        0x0 C:\mcbuilder\cores\makecontroller\core\lwip\src\core\mem.o
 .data          0x0020000c        0x0 C:\mcbuilder\cores\makecontroller\core\lwip\src\core\memp.o
 .data          0x0020000c        0x0 C:\mcbuilder\cores\makecontroller\core\lwip\src\core\netif.o
 .data          0x0020000c        0x0 C:\mcbuilder\cores\makecontroller\core\lwip\src\core\pbuf.o
 .data          0x0020000c        0x0 C:\mcbuilder\cores\makecontroller\core\lwip\src\core\raw.o
 .data          0x0020000c        0x0 C:\mcbuilder\cores\makecontroller\core\lwip\src\core\stats.o
 .data          0x0020000c        0x0 C:\mcbuilder\cores\makecontroller\core\lwip\src\core\sys.o
 .data          0x0020000c        0x8 C:\mcbuilder\cores\makecontroller\core\lwip\src\core\tcp.o
 .data          0x00200014        0x0 C:\mcbuilder\cores\makecontroller\core\lwip\src\core\tcp_in.o
 .data          0x00200014        0x0 C:\mcbuilder\cores\makecontroller\core\lwip\src\core\init.o
 .data          0x00200014        0x0 C:\mcbuilder\cores\makecontroller\core\lwip\src\core\ipv4\ip.o
 .data          0x00200014        0x0 C:\mcbuilder\cores\makecontroller\core\lwip\src\core\ipv4\ip_addr.o
 .data          0x00200014        0x0 C:\mcbuilder\cores\makecontroller\core\lwip\src\core\ipv4\icmp.o
 .data          0x00200014        0x0 C:\mcbuilder\cores\makecontroller\core\lwip\src\core\ipv4\inet_chksum.o
 .data          0x00200014        0x4 C:\mcbuilder\cores\makecontroller\core\lwip\src\core\dhcp.o
 .data          0x00200018        0x0 C:\mcbuilder\cores\makecontroller\core\lwip\src\core\dns.o
 .data          0x00200018        0x0 C:\mcbuilder\cores\makecontroller\core\lwip\src\api\tcpip.o
 .data          0x00200018        0x0 C:\mcbuilder\cores\makecontroller\core\lwip\src\api\api_msg.o
 .data          0x00200018        0x0 C:\mcbuilder\cores\makecontroller\core\lwip\src\api\err.o
 .data          0x00200018        0x0 C:\mcbuilder\cores\makecontroller\core\lwip\src\api\netbuf.o
 .data          0x00200018        0x0 C:\mcbuilder\cores\makecontroller\core\lwip\src\api\api_lib.o
 .data          0x00200018        0x0 C:\mcbuilder\cores\makecontroller\core\lwip\src\netif\etharp.o
 .data          0x00200018        0x0 C:\mcbuilder\cores\makecontroller\core\lwip\contrib\port\FreeRTOS\AT91SAM7X\sys_arch.o
 .data          0x00200018        0x0 C:\mcbuilder\cores\makecontroller\core\lwip\src\netif\ethernetif.o
 .data          0x00200018        0x0 C:\mcbuilder\cores\makecontroller\core\makingthings\SAM7_EMAC.o
 .data          0x00200018        0x0 C:\mcbuilder\cores\makecontroller\core\lwip\src\core\udp.o
 .data          0x00200018        0x0 C:\mcbuilder\cores\makecontroller\core\lwip\src\core\ipv4\ip_frag.o
 .data          0x00200018        0x0 C:\mcbuilder\cores\makecontroller\core\makingthings\osc.o
 .data          0x00200018        0x0 C:\mcbuilder\cores\makecontroller\core\makingthings\osc_patternmatch.o
 .data          0x00200018        0x0 C:\Sync\Desktop\todo\AinToWeb_public\AinToWeb_public.o
 .data          0x00200018        0x0 C:\Users\bjepson\AppData\Local\Temp/ccXGDjSg.o
 .data          0x00200018        0x0 c:/mcbuilder/resources/tools/arm-elf/bin/../lib/gcc/arm-elf/4.2.2/interwork\libgcc.a(_udivsi3.o)
 .data          0x00200018        0x0 c:/mcbuilder/resources/tools/arm-elf/bin/../lib/gcc/arm-elf/4.2.2/interwork\libgcc.a(_divsi3.o)
 .data          0x00200018        0x0 c:/mcbuilder/resources/tools/arm-elf/bin/../lib/gcc/arm-elf/4.2.2/interwork\libgcc.a(_umodsi3.o)
 .data          0x00200018        0x0 c:/mcbuilder/resources/tools/arm-elf/bin/../lib/gcc/arm-elf/4.2.2/interwork\libgcc.a(_modsi3.o)
 .data          0x00200018        0x0 c:/mcbuilder/resources/tools/arm-elf/bin/../lib/gcc/arm-elf/4.2.2/interwork\libgcc.a(_dvmd_tls.o)
 .data          0x00200018        0x0 c:/mcbuilder/resources/tools/arm-elf/bin/../lib/gcc/arm-elf/4.2.2/../../../../arm-elf/lib/interwork\libc.a(lib_a-atoi.o)
 .data          0x00200018        0x4 c:/mcbuilder/resources/tools/arm-elf/bin/../lib/gcc/arm-elf/4.2.2/../../../../arm-elf/lib/interwork\libc.a(lib_a-ctype_.o)
                0x00200018                __ctype_ptr
 .data          0x0020001c        0x0 c:/mcbuilder/resources/tools/arm-elf/bin/../lib/gcc/arm-elf/4.2.2/../../../../arm-elf/lib/interwork\libc.a(lib_a-memcpy.o)
 .data          0x0020001c        0x0 c:/mcbuilder/resources/tools/arm-elf/bin/../lib/gcc/arm-elf/4.2.2/../../../../arm-elf/lib/interwork\libc.a(lib_a-memset.o)
 .data          0x0020001c        0x0 c:/mcbuilder/resources/tools/arm-elf/bin/../lib/gcc/arm-elf/4.2.2/../../../../arm-elf/lib/interwork\libc.a(lib_a-snprintf.o)
 .data          0x0020001c        0x0 c:/mcbuilder/resources/tools/arm-elf/bin/../lib/gcc/arm-elf/4.2.2/../../../../arm-elf/lib/interwork\libc.a(lib_a-sprintf.o)
 .data          0x0020001c        0x0 c:/mcbuilder/resources/tools/arm-elf/bin/../lib/gcc/arm-elf/4.2.2/../../../../arm-elf/lib/interwork\libc.a(lib_a-sscanf.o)
 .data          0x0020001c        0x0 c:/mcbuilder/resources/tools/arm-elf/bin/../lib/gcc/arm-elf/4.2.2/../../../../arm-elf/lib/interwork\libc.a(lib_a-strcat.o)
 .data          0x0020001c        0x0 c:/mcbuilder/resources/tools/arm-elf/bin/../lib/gcc/arm-elf/4.2.2/../../../../arm-elf/lib/interwork\libc.a(lib_a-strchr.o)
 .data          0x0020001c        0x0 c:/mcbuilder/resources/tools/arm-elf/bin/../lib/gcc/arm-elf/4.2.2/../../../../arm-elf/lib/interwork\libc.a(lib_a-strcmp.o)
 .data          0x0020001c        0x0 c:/mcbuilder/resources/tools/arm-elf/bin/../lib/gcc/arm-elf/4.2.2/../../../../arm-elf/lib/interwork\libc.a(lib_a-strcpy.o)
 .data          0x0020001c        0x0 c:/mcbuilder/resources/tools/arm-elf/bin/../lib/gcc/arm-elf/4.2.2/../../../../arm-elf/lib/interwork\libc.a(lib_a-strlen.o)
 .data          0x0020001c        0x0 c:/mcbuilder/resources/tools/arm-elf/bin/../lib/gcc/arm-elf/4.2.2/../../../../arm-elf/lib/interwork\libc.a(lib_a-strncmp.o)
 .data          0x0020001c        0x0 c:/mcbuilder/resources/tools/arm-elf/bin/../lib/gcc/arm-elf/4.2.2/../../../../arm-elf/lib/interwork\libc.a(lib_a-strncpy.o)
 .data          0x0020001c        0x0 c:/mcbuilder/resources/tools/arm-elf/bin/../lib/gcc/arm-elf/4.2.2/../../../../arm-elf/lib/interwork\libc.a(lib_a-strtol.o)
 .data          0x0020001c        0x0 c:/mcbuilder/resources/tools/arm-elf/bin/../lib/gcc/arm-elf/4.2.2/../../../../arm-elf/lib/interwork\libc.a(lib_a-vfprintf.o)
 .data          0x0020001c        0x0 c:/mcbuilder/resources/tools/arm-elf/bin/../lib/gcc/arm-elf/4.2.2/../../../../arm-elf/lib/interwork\libc.a(lib_a-vfscanf.o)
 .data          0x0020001c        0x0 c:/mcbuilder/resources/tools/arm-elf/bin/../lib/gcc/arm-elf/4.2.2/../../../../arm-elf/lib/interwork\libc.a(lib_a-wsetup.o)
 .data          0x0020001c        0x0 c:/mcbuilder/resources/tools/arm-elf/bin/../lib/gcc/arm-elf/4.2.2/../../../../arm-elf/lib/interwork\libc.a(lib_a-dtoa.o)
 .data          0x0020001c        0x0 c:/mcbuilder/resources/tools/arm-elf/bin/../lib/gcc/arm-elf/4.2.2/../../../../arm-elf/lib/interwork\libc.a(lib_a-fflush.o)
 .data          0x0020001c        0x0 c:/mcbuilder/resources/tools/arm-elf/bin/../lib/gcc/arm-elf/4.2.2/../../../../arm-elf/lib/interwork\libc.a(lib_a-findfp.o)
 .data          0x0020001c        0x0 c:/mcbuilder/resources/tools/arm-elf/bin/../lib/gcc/arm-elf/4.2.2/../../../../arm-elf/lib/interwork\libc.a(lib_a-fread.o)
 .data          0x0020001c        0x0 c:/mcbuilder/resources/tools/arm-elf/bin/../lib/gcc/arm-elf/4.2.2/../../../../arm-elf/lib/interwork\libc.a(lib_a-freer.o)
 .data          0x0020001c        0x0 c:/mcbuilder/resources/tools/arm-elf/bin/../lib/gcc/arm-elf/4.2.2/../../../../arm-elf/lib/interwork\libc.a(lib_a-fvwrite.o)
 .data          0x0020001c        0x0 c:/mcbuilder/resources/tools/arm-elf/bin/../lib/gcc/arm-elf/4.2.2/../../../../arm-elf/lib/interwork\libc.a(lib_a-fwalk.o)
 .data          0x0020001c      0x404 c:/mcbuilder/resources/tools/arm-elf/bin/../lib/gcc/arm-elf/4.2.2/../../../../arm-elf/lib/interwork\libc.a(lib_a-impure.o)
                0x0020001c                _impure_ptr
 .data          0x00200420        0x0 c:/mcbuilder/resources/tools/arm-elf/bin/../lib/gcc/arm-elf/4.2.2/../../../../arm-elf/lib/interwork\libc.a(lib_a-iswspace.o)
 .data          0x00200420       0x10 c:/mcbuilder/resources/tools/arm-elf/bin/../lib/gcc/arm-elf/4.2.2/../../../../arm-elf/lib/interwork\libc.a(lib_a-locale.o)
                0x00200420                __mb_cur_max
                0x00200424                __lc_ctype
 .data          0x00200430        0x0 c:/mcbuilder/resources/tools/arm-elf/bin/../lib/gcc/arm-elf/4.2.2/../../../../arm-elf/lib/interwork\libc.a(lib_a-makebuf.o)
 .data          0x00200430      0x410 c:/mcbuilder/resources/tools/arm-elf/bin/../lib/gcc/arm-elf/4.2.2/../../../../arm-elf/lib/interwork\libc.a(lib_a-mallocr.o)
                0x0020083c                __malloc_sbrk_base
                0x00200430                __malloc_av_
                0x00200838                __malloc_trim_threshold
 .data          0x00200840        0x0 c:/mcbuilder/resources/tools/arm-elf/bin/../lib/gcc/arm-elf/4.2.2/../../../../arm-elf/lib/interwork\libc.a(lib_a-mbrtowc.o)
 .data          0x00200840        0x0 c:/mcbuilder/resources/tools/arm-elf/bin/../lib/gcc/arm-elf/4.2.2/../../../../arm-elf/lib/interwork\libc.a(lib_a-mbtowc_r.o)
 .data          0x00200840        0x0 c:/mcbuilder/resources/tools/arm-elf/bin/../lib/gcc/arm-elf/4.2.2/../../../../arm-elf/lib/interwork\libc.a(lib_a-memchr.o)
 .data          0x00200840        0x0 c:/mcbuilder/resources/tools/arm-elf/bin/../lib/gcc/arm-elf/4.2.2/../../../../arm-elf/lib/interwork\libc.a(lib_a-memmove.o)
 .data          0x00200840        0x0 c:/mcbuilder/resources/tools/arm-elf/bin/../lib/gcc/arm-elf/4.2.2/../../../../arm-elf/lib/interwork\libc.a(lib_a-mlock.o)
 .data          0x00200840        0x0 c:/mcbuilder/resources/tools/arm-elf/bin/../lib/gcc/arm-elf/4.2.2/../../../../arm-elf/lib/interwork\libc.a(lib_a-mprec.o)
 .data          0x00200840        0x0 c:/mcbuilder/resources/tools/arm-elf/bin/../lib/gcc/arm-elf/4.2.2/../../../../arm-elf/lib/interwork\libc.a(lib_a-reallocr.o)
 .data          0x00200840        0x0 c:/mcbuilder/resources/tools/arm-elf/bin/../lib/gcc/arm-elf/4.2.2/../../../../arm-elf/lib/interwork\libc.a(lib_a-refill.o)
 .data          0x00200840        0x0 c:/mcbuilder/resources/tools/arm-elf/bin/../lib/gcc/arm-elf/4.2.2/../../../../arm-elf/lib/interwork\libc.a(lib_a-s_isinfd.o)
 .data          0x00200840        0x0 c:/mcbuilder/resources/tools/arm-elf/bin/../lib/gcc/arm-elf/4.2.2/../../../../arm-elf/lib/interwork\libc.a(lib_a-s_isnand.o)
 .data          0x00200840        0x0 c:/mcbuilder/resources/tools/arm-elf/bin/../lib/gcc/arm-elf/4.2.2/../../../../arm-elf/lib/interwork\libc.a(lib_a-sccl.o)
 .data          0x00200840        0x0 c:/mcbuilder/resources/tools/arm-elf/bin/../lib/gcc/arm-elf/4.2.2/../../../../arm-elf/lib/interwork\libc.a(lib_a-sf_nan.o)
 .data          0x00200840        0x0 c:/mcbuilder/resources/tools/arm-elf/bin/../lib/gcc/arm-elf/4.2.2/../../../../arm-elf/lib/interwork\libc.a(lib_a-stdio.o)
 .data          0x00200840       0x28 c:/mcbuilder/resources/tools/arm-elf/bin/../lib/gcc/arm-elf/4.2.2/../../../../arm-elf/lib/interwork\libc.a(lib_a-strtod.o)
 .data          0x00200868        0x0 c:/mcbuilder/resources/tools/arm-elf/bin/../lib/gcc/arm-elf/4.2.2/../../../../arm-elf/lib/interwork\libc.a(lib_a-strtoul.o)
 .data          0x00200868        0x0 c:/mcbuilder/resources/tools/arm-elf/bin/../lib/gcc/arm-elf/4.2.2/../../../../arm-elf/lib/interwork\libc.a(lib_a-syscalls.o)
 .data          0x00200868        0x0 c:/mcbuilder/resources/tools/arm-elf/bin/../lib/gcc/arm-elf/4.2.2/../../../../arm-elf/lib/interwork\libc.a(lib_a-ungetc.o)
 .data          0x00200868        0x0 c:/mcbuilder/resources/tools/arm-elf/bin/../lib/gcc/arm-elf/4.2.2/../../../../arm-elf/lib/interwork\libc.a(lib_a-callocr.o)
 .data          0x00200868        0x0 c:/mcbuilder/resources/tools/arm-elf/bin/../lib/gcc/arm-elf/4.2.2/../../../../arm-elf/lib/interwork\libc.a(lib_a-errno.o)
 .data          0x00200868        0x0 c:/mcbuilder/resources/tools/arm-elf/bin/../lib/gcc/arm-elf/4.2.2/../../../../arm-elf/lib/interwork\libc.a(lib_a-fclose.o)
 .data          0x00200868        0x0 c:/mcbuilder/resources/tools/arm-elf/bin/../lib/gcc/arm-elf/4.2.2/../../../../arm-elf/lib/interwork\libc.a(lib_a-gdtoa-gethex.o)
 .data          0x00200868        0x0 c:/mcbuilder/resources/tools/arm-elf/bin/../lib/gcc/arm-elf/4.2.2/../../../../arm-elf/lib/interwork\libc.a(lib_a-gdtoa-hexnan.o)
 .data          0x00200868        0x0 c:/mcbuilder/resources/tools/arm-elf/bin/../lib/gcc/arm-elf/4.2.2/interwork\libgcc.a(_addsubdf3.o)
 .data          0x00200868        0x0 c:/mcbuilder/resources/tools/arm-elf/bin/../lib/gcc/arm-elf/4.2.2/interwork\libgcc.a(_muldivdf3.o)
 .data          0x00200868        0x0 c:/mcbuilder/resources/tools/arm-elf/bin/../lib/gcc/arm-elf/4.2.2/interwork\libgcc.a(_cmpdf2.o)
 .data          0x00200868        0x0 c:/mcbuilder/resources/tools/arm-elf/bin/../lib/gcc/arm-elf/4.2.2/interwork\libgcc.a(_fixdfsi.o)
 .data          0x00200868        0x0 c:/mcbuilder/resources/tools/arm-elf/bin/../lib/gcc/arm-elf/4.2.2/interwork\libgcc.a(_fixunsdfsi.o)
 .data          0x00200868        0x0 c:/mcbuilder/resources/tools/arm-elf/bin/../lib/gcc/arm-elf/4.2.2/interwork\libgcc.a(_truncdfsf2.o)
                0x00200868                __data_end__ = .

.bss            0x00200868     0xd5f4
                0x00200868                __bss_beg__ = .
 *(.bss)
 .bss           0x00200868        0x0 C:\mcbuilder\cores\makecontroller\core\freertos\portable\GCC\ARM7_AT91SAM7S\portISR.o
 .bss           0x00200868        0x4 C:\mcbuilder\cores\makecontroller\core\makingthings\SAM7_EMAC_ISR.o
 .bss           0x0020086c        0x0 C:\mcbuilder\cores\makecontroller\core\makingthings\USBIsr.o
 .bss           0x0020086c        0x0 C:\mcbuilder\cores\makecontroller\core\startup\Cstartup_SAM7.o
 .bss           0x0020086c        0x0 C:\mcbuilder\cores\makecontroller\core\makingthings\analogin_isr.o
 .bss           0x0020086c        0x0 C:\mcbuilder\cores\makecontroller\core\makingthings\fasttimer_isr.o
 .bss           0x0020086c        0x0 C:\mcbuilder\cores\makecontroller\core\makingthings\serial_isr.o
 .bss           0x0020086c        0x0 C:\mcbuilder\cores\makecontroller\core\makingthings\timer_isr.o
 .bss           0x0020086c       0x10 C:\mcbuilder\cores\makecontroller\libraries\appled\appled.o
 .bss           0x0020087c        0x8 C:\mcbuilder\cores\makecontroller\libraries\webserver\webserver.o
                0x00200880                WebServer
                0x0020087c                WebServerHandlers
 .bss           0x00200884      0x158 C:\mcbuilder\cores\makecontroller\core\freertos\tasks.o
                0x00200884                pxCurrentTCB
 .bss           0x002009dc        0x0 C:\mcbuilder\cores\makecontroller\core\freertos\queue.o
 .bss           0x002009dc        0x0 C:\mcbuilder\cores\makecontroller\core\freertos\list.o
 .bss           0x002009dc        0x0 C:\mcbuilder\cores\makecontroller\core\freertos\portable\GCC\ARM7_AT91SAM7S\port.o
 .bss           0x002009dc        0x0 C:\mcbuilder\cores\makecontroller\core\startup\extras.o
 .bss           0x002009dc     0x4668 C:\mcbuilder\cores\makecontroller\core\freertos\portable\MemMang\heap_2.o
 .bss           0x00205044        0x0 C:\mcbuilder\cores\makecontroller\core\makingthings\main.o
 .bss           0x00205044        0x4 C:\mcbuilder\cores\makecontroller\core\makingthings\eeprom.o
 .bss           0x00205048        0x0 C:\mcbuilder\cores\makecontroller\core\makingthings\analogin.o
 .bss           0x00205048        0x0 C:\mcbuilder\cores\makecontroller\core\makingthings\serial.o
 .bss           0x00205048        0x0 C:\mcbuilder\cores\makecontroller\core\makingthings\pwm.o
 .bss           0x00205048        0x0 C:\mcbuilder\cores\makecontroller\core\makingthings\spi.o
 .bss           0x00205048        0x0 C:\mcbuilder\cores\makecontroller\core\makingthings\USB-CDC.o
 .bss           0x00205048        0x0 C:\mcbuilder\cores\makecontroller\core\makingthings\rtos.o
 .bss           0x00205048        0x0 C:\mcbuilder\cores\makecontroller\core\makingthings\usb.o
 .bss           0x00205048       0x38 C:\mcbuilder\cores\makecontroller\core\makingthings\network.o
                0x00205048                emacETHADDR4
                0x00205049                emacETHADDR5
 .bss           0x00205080        0x0 C:\mcbuilder\cores\makecontroller\core\makingthings\system.o
 .bss           0x00205080        0x0 C:\mcbuilder\cores\makecontroller\core\makingthings\io.o
 .bss           0x00205080        0x4 C:\mcbuilder\cores\makecontroller\core\makingthings\led.o
 .bss           0x00205084        0x0 C:\mcbuilder\cores\makecontroller\core\makingthings\timer.o
 .bss           0x00205084        0x0 C:\mcbuilder\cores\makecontroller\core\makingthings\fasttimer.o
 .bss           0x00205084        0x0 C:\mcbuilder\cores\makecontroller\core\makingthings\debugosc.o
 .bss           0x00205084        0x0 C:\mcbuilder\cores\makecontroller\core\lwip\src\core\tcp_out.o
 .bss           0x00205084       0x10 C:\mcbuilder\cores\makecontroller\core\lwip\src\core\ipv4\inet.o
 .bss           0x00205094      0x7f4 C:\mcbuilder\cores\makecontroller\core\lwip\src\core\mem.o
 .bss           0x00205888     0x2d44 C:\mcbuilder\cores\makecontroller\core\lwip\src\core\memp.o
 .bss           0x002085cc        0x1 C:\mcbuilder\cores\makecontroller\core\lwip\src\core\netif.o
 .bss           0x002085cd        0x0 C:\mcbuilder\cores\makecontroller\core\lwip\src\core\pbuf.o
 *fill*         0x002085cd        0x3 00
 .bss           0x002085d0        0x4 C:\mcbuilder\cores\makecontroller\core\lwip\src\core\raw.o
 .bss           0x002085d4        0x0 C:\mcbuilder\cores\makecontroller\core\lwip\src\core\stats.o
 .bss           0x002085d4        0x0 C:\mcbuilder\cores\makecontroller\core\lwip\src\core\sys.o
 .bss           0x002085d4        0x1 C:\mcbuilder\cores\makecontroller\core\lwip\src\core\tcp.o
 *fill*         0x002085d5        0x3 00
 .bss           0x002085d8       0x30 C:\mcbuilder\cores\makecontroller\core\lwip\src\core\tcp_in.o
 .bss           0x00208608        0x0 C:\mcbuilder\cores\makecontroller\core\lwip\src\core\init.o
 .bss           0x00208608        0x2 C:\mcbuilder\cores\makecontroller\core\lwip\src\core\ipv4\ip.o
 .bss           0x0020860a        0x0 C:\mcbuilder\cores\makecontroller\core\lwip\src\core\ipv4\ip_addr.o
 .bss           0x0020860a        0x0 C:\mcbuilder\cores\makecontroller\core\lwip\src\core\ipv4\icmp.o
 .bss           0x0020860a        0x0 C:\mcbuilder\cores\makecontroller\core\lwip\src\core\ipv4\inet_chksum.o
 .bss           0x0020860a        0x0 C:\mcbuilder\cores\makecontroller\core\lwip\src\core\dhcp.o
 *fill*         0x0020860a        0x2 00
 .bss           0x0020860c      0x670 C:\mcbuilder\cores\makecontroller\core\lwip\src\core\dns.o
 .bss           0x00208c7c       0x10 C:\mcbuilder\cores\makecontroller\core\lwip\src\api\tcpip.o
 .bss           0x00208c8c        0x0 C:\mcbuilder\cores\makecontroller\core\lwip\src\api\api_msg.o
 .bss           0x00208c8c        0x0 C:\mcbuilder\cores\makecontroller\core\lwip\src\api\err.o
 .bss           0x00208c8c        0x0 C:\mcbuilder\cores\makecontroller\core\lwip\src\api\netbuf.o
 .bss           0x00208c8c        0x0 C:\mcbuilder\cores\makecontroller\core\lwip\src\api\api_lib.o
 .bss           0x00208c8c      0x11c C:\mcbuilder\cores\makecontroller\core\lwip\src\netif\etharp.o
 .bss           0x00208da8        0x8 C:\mcbuilder\cores\makecontroller\core\lwip\contrib\port\FreeRTOS\AT91SAM7X\sys_arch.o
                0x00208da8                intlevel
 .bss           0x00208db0        0xc C:\mcbuilder\cores\makecontroller\core\lwip\src\netif\ethernetif.o
 *fill*         0x00208dbc        0x4 00
 .bss           0x00208dc0     0x45f8 C:\mcbuilder\cores\makecontroller\core\makingthings\SAM7_EMAC.o
 .bss           0x0020d3b8        0x0 C:\mcbuilder\cores\makecontroller\core\lwip\src\core\udp.o
 .bss           0x0020d3b8      0x5e4 C:\mcbuilder\cores\makecontroller\core\lwip\src\core\ipv4\ip_frag.o
 .bss           0x0020d99c        0x0 C:\mcbuilder\cores\makecontroller\core\makingthings\osc.o
 .bss           0x0020d99c        0x0 C:\mcbuilder\cores\makecontroller\core\makingthings\osc_patternmatch.o
 .bss           0x0020d99c        0x0 C:\Sync\Desktop\todo\AinToWeb_public\AinToWeb_public.o
 .bss           0x0020d99c        0x0 C:\Users\bjepson\AppData\Local\Temp/ccXGDjSg.o
 .bss           0x0020d99c        0x0 c:/mcbuilder/resources/tools/arm-elf/bin/../lib/gcc/arm-elf/4.2.2/interwork\libgcc.a(_udivsi3.o)
 .bss           0x0020d99c        0x0 c:/mcbuilder/resources/tools/arm-elf/bin/../lib/gcc/arm-elf/4.2.2/interwork\libgcc.a(_divsi3.o)
 .bss           0x0020d99c        0x0 c:/mcbuilder/resources/tools/arm-elf/bin/../lib/gcc/arm-elf/4.2.2/interwork\libgcc.a(_umodsi3.o)
 .bss           0x0020d99c        0x0 c:/mcbuilder/resources/tools/arm-elf/bin/../lib/gcc/arm-elf/4.2.2/interwork\libgcc.a(_modsi3.o)
 .bss           0x0020d99c        0x0 c:/mcbuilder/resources/tools/arm-elf/bin/../lib/gcc/arm-elf/4.2.2/interwork\libgcc.a(_dvmd_tls.o)
 .bss           0x0020d99c        0x0 c:/mcbuilder/resources/tools/arm-elf/bin/../lib/gcc/arm-elf/4.2.2/../../../../arm-elf/lib/interwork\libc.a(lib_a-atoi.o)
 .bss           0x0020d99c        0x0 c:/mcbuilder/resources/tools/arm-elf/bin/../lib/gcc/arm-elf/4.2.2/../../../../arm-elf/lib/interwork\libc.a(lib_a-ctype_.o)
 .bss           0x0020d99c        0x0 c:/mcbuilder/resources/tools/arm-elf/bin/../lib/gcc/arm-elf/4.2.2/../../../../arm-elf/lib/interwork\libc.a(lib_a-memcpy.o)
 .bss           0x0020d99c        0x0 c:/mcbuilder/resources/tools/arm-elf/bin/../lib/gcc/arm-elf/4.2.2/../../../../arm-elf/lib/interwork\libc.a(lib_a-memset.o)
 .bss           0x0020d99c        0x0 c:/mcbuilder/resources/tools/arm-elf/bin/../lib/gcc/arm-elf/4.2.2/../../../../arm-elf/lib/interwork\libc.a(lib_a-snprintf.o)
 .bss           0x0020d99c        0x0 c:/mcbuilder/resources/tools/arm-elf/bin/../lib/gcc/arm-elf/4.2.2/../../../../arm-elf/lib/interwork\libc.a(lib_a-sprintf.o)
 .bss           0x0020d99c        0x0 c:/mcbuilder/resources/tools/arm-elf/bin/../lib/gcc/arm-elf/4.2.2/../../../../arm-elf/lib/interwork\libc.a(lib_a-sscanf.o)
 .bss           0x0020d99c        0x0 c:/mcbuilder/resources/tools/arm-elf/bin/../lib/gcc/arm-elf/4.2.2/../../../../arm-elf/lib/interwork\libc.a(lib_a-strcat.o)
 .bss           0x0020d99c        0x0 c:/mcbuilder/resources/tools/arm-elf/bin/../lib/gcc/arm-elf/4.2.2/../../../../arm-elf/lib/interwork\libc.a(lib_a-strchr.o)
 .bss           0x0020d99c        0x0 c:/mcbuilder/resources/tools/arm-elf/bin/../lib/gcc/arm-elf/4.2.2/../../../../arm-elf/lib/interwork\libc.a(lib_a-strcmp.o)
 .bss           0x0020d99c        0x0 c:/mcbuilder/resources/tools/arm-elf/bin/../lib/gcc/arm-elf/4.2.2/../../../../arm-elf/lib/interwork\libc.a(lib_a-strcpy.o)
 .bss           0x0020d99c        0x0 c:/mcbuilder/resources/tools/arm-elf/bin/../lib/gcc/arm-elf/4.2.2/../../../../arm-elf/lib/interwork\libc.a(lib_a-strlen.o)
 .bss           0x0020d99c        0x0 c:/mcbuilder/resources/tools/arm-elf/bin/../lib/gcc/arm-elf/4.2.2/../../../../arm-elf/lib/interwork\libc.a(lib_a-strncmp.o)
 .bss           0x0020d99c        0x0 c:/mcbuilder/resources/tools/arm-elf/bin/../lib/gcc/arm-elf/4.2.2/../../../../arm-elf/lib/interwork\libc.a(lib_a-strncpy.o)
 .bss           0x0020d99c        0x0 c:/mcbuilder/resources/tools/arm-elf/bin/../lib/gcc/arm-elf/4.2.2/../../../../arm-elf/lib/interwork\libc.a(lib_a-strtol.o)
 .bss           0x0020d99c        0x0 c:/mcbuilder/resources/tools/arm-elf/bin/../lib/gcc/arm-elf/4.2.2/../../../../arm-elf/lib/interwork\libc.a(lib_a-vfprintf.o)
 .bss           0x0020d99c        0x0 c:/mcbuilder/resources/tools/arm-elf/bin/../lib/gcc/arm-elf/4.2.2/../../../../arm-elf/lib/interwork\libc.a(lib_a-vfscanf.o)
 .bss           0x0020d99c        0x0 c:/mcbuilder/resources/tools/arm-elf/bin/../lib/gcc/arm-elf/4.2.2/../../../../arm-elf/lib/interwork\libc.a(lib_a-wsetup.o)
 .bss           0x0020d99c        0x0 c:/mcbuilder/resources/tools/arm-elf/bin/../lib/gcc/arm-elf/4.2.2/../../../../arm-elf/lib/interwork\libc.a(lib_a-dtoa.o)
 .bss           0x0020d99c        0x0 c:/mcbuilder/resources/tools/arm-elf/bin/../lib/gcc/arm-elf/4.2.2/../../../../arm-elf/lib/interwork\libc.a(lib_a-fflush.o)
 .bss           0x0020d99c        0x0 c:/mcbuilder/resources/tools/arm-elf/bin/../lib/gcc/arm-elf/4.2.2/../../../../arm-elf/lib/interwork\libc.a(lib_a-findfp.o)
 .bss           0x0020d99c        0x0 c:/mcbuilder/resources/tools/arm-elf/bin/../lib/gcc/arm-elf/4.2.2/../../../../arm-elf/lib/interwork\libc.a(lib_a-fread.o)
 .bss           0x0020d99c        0x0 c:/mcbuilder/resources/tools/arm-elf/bin/../lib/gcc/arm-elf/4.2.2/../../../../arm-elf/lib/interwork\libc.a(lib_a-freer.o)
 .bss           0x0020d99c        0x0 c:/mcbuilder/resources/tools/arm-elf/bin/../lib/gcc/arm-elf/4.2.2/../../../../arm-elf/lib/interwork\libc.a(lib_a-fvwrite.o)
 .bss           0x0020d99c        0x0 c:/mcbuilder/resources/tools/arm-elf/bin/../lib/gcc/arm-elf/4.2.2/../../../../arm-elf/lib/interwork\libc.a(lib_a-fwalk.o)
 .bss           0x0020d99c        0x0 c:/mcbuilder/resources/tools/arm-elf/bin/../lib/gcc/arm-elf/4.2.2/../../../../arm-elf/lib/interwork\libc.a(lib_a-impure.o)
 .bss           0x0020d99c        0x0 c:/mcbuilder/resources/tools/arm-elf/bin/../lib/gcc/arm-elf/4.2.2/../../../../arm-elf/lib/interwork\libc.a(lib_a-iswspace.o)
 .bss           0x0020d99c        0xc c:/mcbuilder/resources/tools/arm-elf/bin/../lib/gcc/arm-elf/4.2.2/../../../../arm-elf/lib/interwork\libc.a(lib_a-locale.o)
                0x0020d99c                __nlocale_changed
                0x0020d9a0                __mlocale_changed
                0x0020d9a4                _PathLocale
 .bss           0x0020d9a8        0x0 c:/mcbuilder/resources/tools/arm-elf/bin/../lib/gcc/arm-elf/4.2.2/../../../../arm-elf/lib/interwork\libc.a(lib_a-makebuf.o)
 .bss           0x0020d9a8       0x34 c:/mcbuilder/resources/tools/arm-elf/bin/../lib/gcc/arm-elf/4.2.2/../../../../arm-elf/lib/interwork\libc.a(lib_a-mallocr.o)
                0x0020d9a8                __malloc_top_pad
                0x0020d9ac                __malloc_max_sbrked_mem
                0x0020d9b4                __malloc_current_mallinfo
                0x0020d9b0                __malloc_max_total_mem
 .bss           0x0020d9dc        0x0 c:/mcbuilder/resources/tools/arm-elf/bin/../lib/gcc/arm-elf/4.2.2/../../../../arm-elf/lib/interwork\libc.a(lib_a-mbrtowc.o)
 .bss           0x0020d9dc        0x0 c:/mcbuilder/resources/tools/arm-elf/bin/../lib/gcc/arm-elf/4.2.2/../../../../arm-elf/lib/interwork\libc.a(lib_a-mbtowc_r.o)
 .bss           0x0020d9dc        0x0 c:/mcbuilder/resources/tools/arm-elf/bin/../lib/gcc/arm-elf/4.2.2/../../../../arm-elf/lib/interwork\libc.a(lib_a-memchr.o)
 .bss           0x0020d9dc        0x0 c:/mcbuilder/resources/tools/arm-elf/bin/../lib/gcc/arm-elf/4.2.2/../../../../arm-elf/lib/interwork\libc.a(lib_a-memmove.o)
 .bss           0x0020d9dc        0x0 c:/mcbuilder/resources/tools/arm-elf/bin/../lib/gcc/arm-elf/4.2.2/../../../../arm-elf/lib/interwork\libc.a(lib_a-mlock.o)
 .bss           0x0020d9dc        0x0 c:/mcbuilder/resources/tools/arm-elf/bin/../lib/gcc/arm-elf/4.2.2/../../../../arm-elf/lib/interwork\libc.a(lib_a-mprec.o)
 .bss           0x0020d9dc        0x0 c:/mcbuilder/resources/tools/arm-elf/bin/../lib/gcc/arm-elf/4.2.2/../../../../arm-elf/lib/interwork\libc.a(lib_a-reallocr.o)
 .bss           0x0020d9dc        0x0 c:/mcbuilder/resources/tools/arm-elf/bin/../lib/gcc/arm-elf/4.2.2/../../../../arm-elf/lib/interwork\libc.a(lib_a-refill.o)
 .bss           0x0020d9dc        0x0 c:/mcbuilder/resources/tools/arm-elf/bin/../lib/gcc/arm-elf/4.2.2/../../../../arm-elf/lib/interwork\libc.a(lib_a-s_isinfd.o)
 .bss           0x0020d9dc        0x0 c:/mcbuilder/resources/tools/arm-elf/bin/../lib/gcc/arm-elf/4.2.2/../../../../arm-elf/lib/interwork\libc.a(lib_a-s_isnand.o)
 .bss           0x0020d9dc        0x0 c:/mcbuilder/resources/tools/arm-elf/bin/../lib/gcc/arm-elf/4.2.2/../../../../arm-elf/lib/interwork\libc.a(lib_a-sccl.o)
 .bss           0x0020d9dc        0x0 c:/mcbuilder/resources/tools/arm-elf/bin/../lib/gcc/arm-elf/4.2.2/../../../../arm-elf/lib/interwork\libc.a(lib_a-sf_nan.o)
 .bss           0x0020d9dc        0x0 c:/mcbuilder/resources/tools/arm-elf/bin/../lib/gcc/arm-elf/4.2.2/../../../../arm-elf/lib/interwork\libc.a(lib_a-stdio.o)
 .bss           0x0020d9dc        0x0 c:/mcbuilder/resources/tools/arm-elf/bin/../lib/gcc/arm-elf/4.2.2/../../../../arm-elf/lib/interwork\libc.a(lib_a-strtod.o)
 .bss           0x0020d9dc        0x0 c:/mcbuilder/resources/tools/arm-elf/bin/../lib/gcc/arm-elf/4.2.2/../../../../arm-elf/lib/interwork\libc.a(lib_a-strtoul.o)
 .bss           0x0020d9dc       0xb0 c:/mcbuilder/resources/tools/arm-elf/bin/../lib/gcc/arm-elf/4.2.2/../../../../arm-elf/lib/interwork\libc.a(lib_a-syscalls.o)
 .bss           0x0020da8c        0x0 c:/mcbuilder/resources/tools/arm-elf/bin/../lib/gcc/arm-elf/4.2.2/../../../../arm-elf/lib/interwork\libc.a(lib_a-ungetc.o)
 .bss           0x0020da8c        0x0 c:/mcbuilder/resources/tools/arm-elf/bin/../lib/gcc/arm-elf/4.2.2/../../../../arm-elf/lib/interwork\libc.a(lib_a-callocr.o)
 .bss           0x0020da8c        0x0 c:/mcbuilder/resources/tools/arm-elf/bin/../lib/gcc/arm-elf/4.2.2/../../../../arm-elf/lib/interwork\libc.a(lib_a-errno.o)
 .bss           0x0020da8c        0x0 c:/mcbuilder/resources/tools/arm-elf/bin/../lib/gcc/arm-elf/4.2.2/../../../../arm-elf/lib/interwork\libc.a(lib_a-fclose.o)
 .bss           0x0020da8c        0x0 c:/mcbuilder/resources/tools/arm-elf/bin/../lib/gcc/arm-elf/4.2.2/../../../../arm-elf/lib/interwork\libc.a(lib_a-gdtoa-gethex.o)
 .bss           0x0020da8c        0x0 c:/mcbuilder/resources/tools/arm-elf/bin/../lib/gcc/arm-elf/4.2.2/../../../../arm-elf/lib/interwork\libc.a(lib_a-gdtoa-hexnan.o)
 .bss           0x0020da8c        0x0 c:/mcbuilder/resources/tools/arm-elf/bin/../lib/gcc/arm-elf/4.2.2/interwork\libgcc.a(_addsubdf3.o)
 .bss           0x0020da8c        0x0 c:/mcbuilder/resources/tools/arm-elf/bin/../lib/gcc/arm-elf/4.2.2/interwork\libgcc.a(_muldivdf3.o)
 .bss           0x0020da8c        0x0 c:/mcbuilder/resources/tools/arm-elf/bin/../lib/gcc/arm-elf/4.2.2/interwork\libgcc.a(_cmpdf2.o)
 .bss           0x0020da8c        0x0 c:/mcbuilder/resources/tools/arm-elf/bin/../lib/gcc/arm-elf/4.2.2/interwork\libgcc.a(_fixdfsi.o)
 .bss           0x0020da8c        0x0 c:/mcbuilder/resources/tools/arm-elf/bin/../lib/gcc/arm-elf/4.2.2/interwork\libgcc.a(_fixunsdfsi.o)
 .bss           0x0020da8c        0x0 c:/mcbuilder/resources/tools/arm-elf/bin/../lib/gcc/arm-elf/4.2.2/interwork\libgcc.a(_truncdfsf2.o)
 COMMON         0x0020da8c        0xc C:\mcbuilder\cores\makecontroller\core\makingthings\fasttimer_isr.o
                0x0020da8c                jitter
                0x0020da90                timeReference
                0x0020da94                te
 COMMON         0x0020da98        0x4 C:\mcbuilder\cores\makecontroller\core\makingthings\main.o
                0x0020da98                toggle
 COMMON         0x0020da9c        0x4 C:\mcbuilder\cores\makecontroller\core\makingthings\analogin.o
                0x0020da9c                AnalogIn
 COMMON         0x0020daa0       0x60 C:\mcbuilder\cores\makecontroller\core\makingthings\serial.o
                0x0020daa0                Serial
 COMMON         0x0020db00       0x18 C:\mcbuilder\cores\makecontroller\core\makingthings\pwm.o
                0x0020db00                Pwm
 COMMON         0x0020db18        0xc C:\mcbuilder\cores\makecontroller\core\makingthings\spi.o
                0x0020db18                Spi
 COMMON         0x0020db24        0xc C:\mcbuilder\cores\makecontroller\core\makingthings\network.o
                0x0020db24                Network
                0x0020db28                Network_DnsSemaphore
                0x0020db2c                Network_Valid
 COMMON         0x0020db30        0x4 C:\mcbuilder\cores\makecontroller\core\makingthings\system.o
                0x0020db30                System
 COMMON         0x0020db34       0x50 C:\mcbuilder\cores\makecontroller\core\makingthings\io.o
                0x0020db34                Io
 COMMON         0x0020db84       0x2c C:\mcbuilder\cores\makecontroller\core\makingthings\timer.o
                0x0020db84                Timer
 COMMON         0x0020dbb0       0x38 C:\mcbuilder\cores\makecontroller\core\makingthings\fasttimer.o
                0x0020dbb0                FastTimer
 COMMON         0x0020dbe8        0x8 C:\mcbuilder\cores\makecontroller\core\lwip\src\core\netif.o
                0x0020dbe8                netif_list
                0x0020dbec                netif_default
 COMMON         0x0020dbf0      0x14c C:\mcbuilder\cores\makecontroller\core\lwip\src\core\stats.o
                0x0020dbf0                lwip_stats
 COMMON         0x0020dd3c       0x18 C:\mcbuilder\cores\makecontroller\core\lwip\src\core\tcp.o
                0x0020dd3c                tcp_active_pcbs
                0x0020dd40                tcp_ticks
                0x0020dd44                tcp_listen_pcbs
                0x0020dd48                tcp_tmp_pcb
                0x0020dd4c                tcp_bound_pcbs
                0x0020dd50                tcp_tw_pcbs
 COMMON         0x0020dd54        0x4 C:\mcbuilder\cores\makecontroller\core\lwip\src\core\tcp_in.o
                0x0020dd54                tcp_input_pcb
 COMMON         0x0020dd58        0x4 C:\mcbuilder\cores\makecontroller\core\lwip\src\core\udp.o
                0x0020dd58                udp_pcbs
 COMMON         0x0020dd5c      0x100 c:/mcbuilder/resources/tools/arm-elf/bin/../lib/gcc/arm-elf/4.2.2/../../../../arm-elf/lib/interwork\libc.a(lib_a-gdtoa-gethex.o)
                0x0020dd5c                __hexdig
                0x0020de5c                . = ALIGN (0x4)
                0x0020de5c                . = ALIGN (0x4)
                0x0020de5c                _end = .
                0x0020de5c                _bss_end__ = .
                0x0020de5c                __bss_end__ = .
                0x0020de5c                __end__ = .
                0x0020de5c                PROVIDE (end, .)
OUTPUT(aintoweb_public.elf elf32-littlearm)

.comment        0x00000000      0x828
 .comment       0x00000000       0x12 C:\mcbuilder\cores\makecontroller\core\freertos\portable\GCC\ARM7_AT91SAM7S\portISR.o
 .comment       0x00000012       0x12 C:\mcbuilder\cores\makecontroller\core\makingthings\SAM7_EMAC_ISR.o
 .comment       0x00000024       0x12 C:\mcbuilder\cores\makecontroller\core\makingthings\USBIsr.o
 .comment       0x00000036       0x12 C:\mcbuilder\cores\makecontroller\core\startup\Cstartup_SAM7.o
 .comment       0x00000048       0x12 C:\mcbuilder\cores\makecontroller\core\makingthings\analogin_isr.o
 .comment       0x0000005a       0x12 C:\mcbuilder\cores\makecontroller\core\makingthings\fasttimer_isr.o
 .comment       0x0000006c       0x12 C:\mcbuilder\cores\makecontroller\core\makingthings\serial_isr.o
 .comment       0x0000007e       0x12 C:\mcbuilder\cores\makecontroller\core\makingthings\timer_isr.o
 .comment       0x00000090       0x12 C:\mcbuilder\cores\makecontroller\libraries\appled\appled.o
 .comment       0x000000a2       0x12 C:\mcbuilder\cores\makecontroller\libraries\webserver\webserver.o
 .comment       0x000000b4       0x12 C:\mcbuilder\cores\makecontroller\core\freertos\tasks.o
 .comment       0x000000c6       0x12 C:\mcbuilder\cores\makecontroller\core\freertos\queue.o
 .comment       0x000000d8       0x12 C:\mcbuilder\cores\makecontroller\core\freertos\list.o
 .comment       0x000000ea       0x12 C:\mcbuilder\cores\makecontroller\core\freertos\portable\GCC\ARM7_AT91SAM7S\port.o
 .comment       0x000000fc       0x12 C:\mcbuilder\cores\makecontroller\core\startup\extras.o
 .comment       0x0000010e       0x12 C:\mcbuilder\cores\makecontroller\core\freertos\portable\MemMang\heap_2.o
 .comment       0x00000120       0x12 C:\mcbuilder\cores\makecontroller\core\makingthings\main.o
 .comment       0x00000132       0x12 C:\mcbuilder\cores\makecontroller\core\makingthings\eeprom.o
 .comment       0x00000144       0x12 C:\mcbuilder\cores\makecontroller\core\makingthings\analogin.o
 .comment       0x00000156       0x12 C:\mcbuilder\cores\makecontroller\core\makingthings\serial.o
 .comment       0x00000168       0x12 C:\mcbuilder\cores\makecontroller\core\makingthings\pwm.o
 .comment       0x0000017a       0x12 C:\mcbuilder\cores\makecontroller\core\makingthings\spi.o
 .comment       0x0000018c       0x12 C:\mcbuilder\cores\makecontroller\core\makingthings\USB-CDC.o
 .comment       0x0000019e       0x12 C:\mcbuilder\cores\makecontroller\core\makingthings\rtos.o
 .comment       0x000001b0       0x12 C:\mcbuilder\cores\makecontroller\core\makingthings\usb.o
 .comment       0x000001c2       0x12 C:\mcbuilder\cores\makecontroller\core\makingthings\network.o
 .comment       0x000001d4       0x12 C:\mcbuilder\cores\makecontroller\core\makingthings\system.o
 .comment       0x000001e6       0x12 C:\mcbuilder\cores\makecontroller\core\makingthings\io.o
 .comment       0x000001f8       0x12 C:\mcbuilder\cores\makecontroller\core\makingthings\led.o
 .comment       0x0000020a       0x12 C:\mcbuilder\cores\makecontroller\core\makingthings\timer.o
 .comment       0x0000021c       0x12 C:\mcbuilder\cores\makecontroller\core\makingthings\fasttimer.o
 .comment       0x0000022e       0x12 C:\mcbuilder\cores\makecontroller\core\makingthings\debugosc.o
 .comment       0x00000240       0x12 C:\mcbuilder\cores\makecontroller\core\lwip\src\core\tcp_out.o
 .comment       0x00000252       0x12 C:\mcbuilder\cores\makecontroller\core\lwip\src\core\ipv4\inet.o
 .comment       0x00000264       0x12 C:\mcbuilder\cores\makecontroller\core\lwip\src\core\mem.o
 .comment       0x00000276       0x12 C:\mcbuilder\cores\makecontroller\core\lwip\src\core\memp.o
 .comment       0x00000288       0x12 C:\mcbuilder\cores\makecontroller\core\lwip\src\core\netif.o
 .comment       0x0000029a       0x12 C:\mcbuilder\cores\makecontroller\core\lwip\src\core\pbuf.o
 .comment       0x000002ac       0x12 C:\mcbuilder\cores\makecontroller\core\lwip\src\core\raw.o
 .comment       0x000002be       0x12 C:\mcbuilder\cores\makecontroller\core\lwip\src\core\stats.o
 .comment       0x000002d0       0x12 C:\mcbuilder\cores\makecontroller\core\lwip\src\core\sys.o
 .comment       0x000002e2       0x12 C:\mcbuilder\cores\makecontroller\core\lwip\src\core\tcp.o
 .comment       0x000002f4       0x12 C:\mcbuilder\cores\makecontroller\core\lwip\src\core\tcp_in.o
 .comment       0x00000306       0x12 C:\mcbuilder\cores\makecontroller\core\lwip\src\core\init.o
 .comment       0x00000318       0x12 C:\mcbuilder\cores\makecontroller\core\lwip\src\core\ipv4\ip.o
 .comment       0x0000032a       0x12 C:\mcbuilder\cores\makecontroller\core\lwip\src\core\ipv4\ip_addr.o
 .comment       0x0000033c       0x12 C:\mcbuilder\cores\makecontroller\core\lwip\src\core\ipv4\icmp.o
 .comment       0x0000034e       0x12 C:\mcbuilder\cores\makecontroller\core\lwip\src\core\ipv4\inet_chksum.o
 .comment       0x00000360       0x12 C:\mcbuilder\cores\makecontroller\core\lwip\src\core\dhcp.o
 .comment       0x00000372       0x12 C:\mcbuilder\cores\makecontroller\core\lwip\src\core\dns.o
 .comment       0x00000384       0x12 C:\mcbuilder\cores\makecontroller\core\lwip\src\api\tcpip.o
 .comment       0x00000396       0x12 C:\mcbuilder\cores\makecontroller\core\lwip\src\api\api_msg.o
 .comment       0x000003a8       0x12 C:\mcbuilder\cores\makecontroller\core\lwip\src\api\err.o
 .comment       0x000003ba       0x12 C:\mcbuilder\cores\makecontroller\core\lwip\src\api\netbuf.o
 .comment       0x000003cc       0x12 C:\mcbuilder\cores\makecontroller\core\lwip\src\api\api_lib.o
 .comment       0x000003de       0x12 C:\mcbuilder\cores\makecontroller\core\lwip\src\netif\etharp.o
 .comment       0x000003f0       0x12 C:\mcbuilder\cores\makecontroller\core\lwip\contrib\port\FreeRTOS\AT91SAM7X\sys_arch.o
 .comment       0x00000402       0x12 C:\mcbuilder\cores\makecontroller\core\lwip\src\netif\ethernetif.o
 .comment       0x00000414       0x12 C:\mcbuilder\cores\makecontroller\core\makingthings\SAM7_EMAC.o
 .comment       0x00000426       0x12 C:\mcbuilder\cores\makecontroller\core\lwip\src\core\udp.o
 .comment       0x00000438       0x12 C:\mcbuilder\cores\makecontroller\core\lwip\src\core\ipv4\ip_frag.o
 .comment       0x0000044a       0x12 C:\mcbuilder\cores\makecontroller\core\makingthings\osc.o
 .comment       0x0000045c       0x12 C:\mcbuilder\cores\makecontroller\core\makingthings\osc_patternmatch.o
 .comment       0x0000046e       0x12 C:\Sync\Desktop\todo\AinToWeb_public\AinToWeb_public.o
 .comment       0x00000480       0x12 c:/mcbuilder/resources/tools/arm-elf/bin/../lib/gcc/arm-elf/4.2.2/../../../../arm-elf/lib/interwork\libc.a(lib_a-atoi.o)
 .comment       0x00000492       0x12 c:/mcbuilder/resources/tools/arm-elf/bin/../lib/gcc/arm-elf/4.2.2/../../../../arm-elf/lib/interwork\libc.a(lib_a-ctype_.o)
 .comment       0x000004a4       0x12 c:/mcbuilder/resources/tools/arm-elf/bin/../lib/gcc/arm-elf/4.2.2/../../../../arm-elf/lib/interwork\libc.a(lib_a-memcpy.o)
 .comment       0x000004b6       0x12 c:/mcbuilder/resources/tools/arm-elf/bin/../lib/gcc/arm-elf/4.2.2/../../../../arm-elf/lib/interwork\libc.a(lib_a-memset.o)
 .comment       0x000004c8       0x12 c:/mcbuilder/resources/tools/arm-elf/bin/../lib/gcc/arm-elf/4.2.2/../../../../arm-elf/lib/interwork\libc.a(lib_a-snprintf.o)
 .comment       0x000004da       0x12 c:/mcbuilder/resources/tools/arm-elf/bin/../lib/gcc/arm-elf/4.2.2/../../../../arm-elf/lib/interwork\libc.a(lib_a-sprintf.o)
 .comment       0x000004ec       0x12 c:/mcbuilder/resources/tools/arm-elf/bin/../lib/gcc/arm-elf/4.2.2/../../../../arm-elf/lib/interwork\libc.a(lib_a-sscanf.o)
 .comment       0x000004fe       0x12 c:/mcbuilder/resources/tools/arm-elf/bin/../lib/gcc/arm-elf/4.2.2/../../../../arm-elf/lib/interwork\libc.a(lib_a-strcat.o)
 .comment       0x00000510       0x12 c:/mcbuilder/resources/tools/arm-elf/bin/../lib/gcc/arm-elf/4.2.2/../../../../arm-elf/lib/interwork\libc.a(lib_a-strchr.o)
 .comment       0x00000522       0x12 c:/mcbuilder/resources/tools/arm-elf/bin/../lib/gcc/arm-elf/4.2.2/../../../../arm-elf/lib/interwork\libc.a(lib_a-strcmp.o)
 .comment       0x00000534       0x12 c:/mcbuilder/resources/tools/arm-elf/bin/../lib/gcc/arm-elf/4.2.2/../../../../arm-elf/lib/interwork\libc.a(lib_a-strcpy.o)
 .comment       0x00000546       0x12 c:/mcbuilder/resources/tools/arm-elf/bin/../lib/gcc/arm-elf/4.2.2/../../../../arm-elf/lib/interwork\libc.a(lib_a-strlen.o)
 .comment       0x00000558       0x12 c:/mcbuilder/resources/tools/arm-elf/bin/../lib/gcc/arm-elf/4.2.2/../../../../arm-elf/lib/interwork\libc.a(lib_a-strncmp.o)
 .comment       0x0000056a       0x12 c:/mcbuilder/resources/tools/arm-elf/bin/../lib/gcc/arm-elf/4.2.2/../../../../arm-elf/lib/interwork\libc.a(lib_a-strncpy.o)
 .comment       0x0000057c       0x12 c:/mcbuilder/resources/tools/arm-elf/bin/../lib/gcc/arm-elf/4.2.2/../../../../arm-elf/lib/interwork\libc.a(lib_a-strtol.o)
 .comment       0x0000058e       0x12 c:/mcbuilder/resources/tools/arm-elf/bin/../lib/gcc/arm-elf/4.2.2/../../../../arm-elf/lib/interwork\libc.a(lib_a-vfprintf.o)
 .comment       0x000005a0       0x12 c:/mcbuilder/resources/tools/arm-elf/bin/../lib/gcc/arm-elf/4.2.2/../../../../arm-elf/lib/interwork\libc.a(lib_a-vfscanf.o)
 .comment       0x000005b2       0x12 c:/mcbuilder/resources/tools/arm-elf/bin/../lib/gcc/arm-elf/4.2.2/../../../../arm-elf/lib/interwork\libc.a(lib_a-wsetup.o)
 .comment       0x000005c4       0x12 c:/mcbuilder/resources/tools/arm-elf/bin/../lib/gcc/arm-elf/4.2.2/../../../../arm-elf/lib/interwork\libc.a(lib_a-dtoa.o)
 .comment       0x000005d6       0x12 c:/mcbuilder/resources/tools/arm-elf/bin/../lib/gcc/arm-elf/4.2.2/../../../../arm-elf/lib/interwork\libc.a(lib_a-fflush.o)
 .comment       0x000005e8       0x12 c:/mcbuilder/resources/tools/arm-elf/bin/../lib/gcc/arm-elf/4.2.2/../../../../arm-elf/lib/interwork\libc.a(lib_a-findfp.o)
 .comment       0x000005fa       0x12 c:/mcbuilder/resources/tools/arm-elf/bin/../lib/gcc/arm-elf/4.2.2/../../../../arm-elf/lib/interwork\libc.a(lib_a-fread.o)
 .comment       0x0000060c       0x12 c:/mcbuilder/resources/tools/arm-elf/bin/../lib/gcc/arm-elf/4.2.2/../../../../arm-elf/lib/interwork\libc.a(lib_a-freer.o)
 .comment       0x0000061e       0x12 c:/mcbuilder/resources/tools/arm-elf/bin/../lib/gcc/arm-elf/4.2.2/../../../../arm-elf/lib/interwork\libc.a(lib_a-fvwrite.o)
 .comment       0x00000630       0x12 c:/mcbuilder/resources/tools/arm-elf/bin/../lib/gcc/arm-elf/4.2.2/../../../../arm-elf/lib/interwork\libc.a(lib_a-fwalk.o)
 .comment       0x00000642       0x12 c:/mcbuilder/resources/tools/arm-elf/bin/../lib/gcc/arm-elf/4.2.2/../../../../arm-elf/lib/interwork\libc.a(lib_a-impure.o)
 .comment       0x00000654       0x12 c:/mcbuilder/resources/tools/arm-elf/bin/../lib/gcc/arm-elf/4.2.2/../../../../arm-elf/lib/interwork\libc.a(lib_a-iswspace.o)
 .comment       0x00000666       0x12 c:/mcbuilder/resources/tools/arm-elf/bin/../lib/gcc/arm-elf/4.2.2/../../../../arm-elf/lib/interwork\libc.a(lib_a-locale.o)
 .comment       0x00000678       0x12 c:/mcbuilder/resources/tools/arm-elf/bin/../lib/gcc/arm-elf/4.2.2/../../../../arm-elf/lib/interwork\libc.a(lib_a-makebuf.o)
 .comment       0x0000068a       0x12 c:/mcbuilder/resources/tools/arm-elf/bin/../lib/gcc/arm-elf/4.2.2/../../../../arm-elf/lib/interwork\libc.a(lib_a-mallocr.o)
 .comment       0x0000069c       0x12 c:/mcbuilder/resources/tools/arm-elf/bin/../lib/gcc/arm-elf/4.2.2/../../../../arm-elf/lib/interwork\libc.a(lib_a-mbrtowc.o)
 .comment       0x000006ae       0x12 c:/mcbuilder/resources/tools/arm-elf/bin/../lib/gcc/arm-elf/4.2.2/../../../../arm-elf/lib/interwork\libc.a(lib_a-mbtowc_r.o)
 .comment       0x000006c0       0x12 c:/mcbuilder/resources/tools/arm-elf/bin/../lib/gcc/arm-elf/4.2.2/../../../../arm-elf/lib/interwork\libc.a(lib_a-memchr.o)
 .comment       0x000006d2       0x12 c:/mcbuilder/resources/tools/arm-elf/bin/../lib/gcc/arm-elf/4.2.2/../../../../arm-elf/lib/interwork\libc.a(lib_a-memmove.o)
 .comment       0x000006e4       0x12 c:/mcbuilder/resources/tools/arm-elf/bin/../lib/gcc/arm-elf/4.2.2/../../../../arm-elf/lib/interwork\libc.a(lib_a-mlock.o)
 .comment       0x000006f6       0x12 c:/mcbuilder/resources/tools/arm-elf/bin/../lib/gcc/arm-elf/4.2.2/../../../../arm-elf/lib/interwork\libc.a(lib_a-mprec.o)
 .comment       0x00000708       0x12 c:/mcbuilder/resources/tools/arm-elf/bin/../lib/gcc/arm-elf/4.2.2/../../../../arm-elf/lib/interwork\libc.a(lib_a-reallocr.o)
 .comment       0x0000071a       0x12 c:/mcbuilder/resources/tools/arm-elf/bin/../lib/gcc/arm-elf/4.2.2/../../../../arm-elf/lib/interwork\libc.a(lib_a-refill.o)
 .comment       0x0000072c       0x12 c:/mcbuilder/resources/tools/arm-elf/bin/../lib/gcc/arm-elf/4.2.2/../../../../arm-elf/lib/interwork\libc.a(lib_a-s_isinfd.o)
 .comment       0x0000073e       0x12 c:/mcbuilder/resources/tools/arm-elf/bin/../lib/gcc/arm-elf/4.2.2/../../../../arm-elf/lib/interwork\libc.a(lib_a-s_isnand.o)
 .comment       0x00000750       0x12 c:/mcbuilder/resources/tools/arm-elf/bin/../lib/gcc/arm-elf/4.2.2/../../../../arm-elf/lib/interwork\libc.a(lib_a-sccl.o)
 .comment       0x00000762       0x12 c:/mcbuilder/resources/tools/arm-elf/bin/../lib/gcc/arm-elf/4.2.2/../../../../arm-elf/lib/interwork\libc.a(lib_a-sf_nan.o)
 .comment       0x00000774       0x12 c:/mcbuilder/resources/tools/arm-elf/bin/../lib/gcc/arm-elf/4.2.2/../../../../arm-elf/lib/interwork\libc.a(lib_a-stdio.o)
 .comment       0x00000786       0x12 c:/mcbuilder/resources/tools/arm-elf/bin/../lib/gcc/arm-elf/4.2.2/../../../../arm-elf/lib/interwork\libc.a(lib_a-strtod.o)
 .comment       0x00000798       0x12 c:/mcbuilder/resources/tools/arm-elf/bin/../lib/gcc/arm-elf/4.2.2/../../../../arm-elf/lib/interwork\libc.a(lib_a-strtoul.o)
 .comment       0x000007aa       0x12 c:/mcbuilder/resources/tools/arm-elf/bin/../lib/gcc/arm-elf/4.2.2/../../../../arm-elf/lib/interwork\libc.a(lib_a-syscalls.o)
 .comment       0x000007bc       0x12 c:/mcbuilder/resources/tools/arm-elf/bin/../lib/gcc/arm-elf/4.2.2/../../../../arm-elf/lib/interwork\libc.a(lib_a-ungetc.o)
 .comment       0x000007ce       0x12 c:/mcbuilder/resources/tools/arm-elf/bin/../lib/gcc/arm-elf/4.2.2/../../../../arm-elf/lib/interwork\libc.a(lib_a-callocr.o)
 .comment       0x000007e0       0x12 c:/mcbuilder/resources/tools/arm-elf/bin/../lib/gcc/arm-elf/4.2.2/../../../../arm-elf/lib/interwork\libc.a(lib_a-errno.o)
 .comment       0x000007f2       0x12 c:/mcbuilder/resources/tools/arm-elf/bin/../lib/gcc/arm-elf/4.2.2/../../../../arm-elf/lib/interwork\libc.a(lib_a-fclose.o)
 .comment       0x00000804       0x12 c:/mcbuilder/resources/tools/arm-elf/bin/../lib/gcc/arm-elf/4.2.2/../../../../arm-elf/lib/interwork\libc.a(lib_a-gdtoa-gethex.o)
 .comment       0x00000816       0x12 c:/mcbuilder/resources/tools/arm-elf/bin/../lib/gcc/arm-elf/4.2.2/../../../../arm-elf/lib/interwork\libc.a(lib_a-gdtoa-hexnan.o)

.ARM.attributes
                0x00000000       0x10
 .ARM.attributes
                0x00000000       0x10 C:\mcbuilder\cores\makecontroller\core\freertos\portable\GCC\ARM7_AT91SAM7S\portISR.o
 .ARM.attributes
                0x00000010       0x10 C:\mcbuilder\cores\makecontroller\core\makingthings\SAM7_EMAC_ISR.o
 .ARM.attributes
                0x00000020       0x10 C:\mcbuilder\cores\makecontroller\core\makingthings\USBIsr.o
 .ARM.attributes
                0x00000030       0x10 C:\mcbuilder\cores\makecontroller\core\startup\Cstartup_SAM7.o
 .ARM.attributes
                0x00000040       0x10 C:\mcbuilder\cores\makecontroller\core\makingthings\analogin_isr.o
 .ARM.attributes
                0x00000050       0x10 C:\mcbuilder\cores\makecontroller\core\makingthings\fasttimer_isr.o
 .ARM.attributes
                0x00000060       0x10 C:\mcbuilder\cores\makecontroller\core\makingthings\serial_isr.o
 .ARM.attributes
                0x00000070       0x10 C:\mcbuilder\cores\makecontroller\core\makingthings\timer_isr.o
 .ARM.attributes
                0x00000080       0x10 C:\mcbuilder\cores\makecontroller\libraries\appled\appled.o
 .ARM.attributes
                0x00000090       0x10 C:\mcbuilder\cores\makecontroller\libraries\webserver\webserver.o
 .ARM.attributes
                0x000000a0       0x10 C:\mcbuilder\cores\makecontroller\core\freertos\tasks.o
 .ARM.attributes
                0x000000b0       0x10 C:\mcbuilder\cores\makecontroller\core\freertos\queue.o
 .ARM.attributes
                0x000000c0       0x10 C:\mcbuilder\cores\makecontroller\core\freertos\list.o
 .ARM.attributes
                0x000000d0       0x10 C:\mcbuilder\cores\makecontroller\core\freertos\portable\GCC\ARM7_AT91SAM7S\port.o
 .ARM.attributes
                0x000000e0       0x10 C:\mcbuilder\cores\makecontroller\core\startup\extras.o
 .ARM.attributes
                0x000000f0       0x10 C:\mcbuilder\cores\makecontroller\core\freertos\portable\MemMang\heap_2.o
 .ARM.attributes
                0x00000100       0x10 C:\mcbuilder\cores\makecontroller\core\makingthings\main.o
 .ARM.attributes
                0x00000110       0x10 C:\mcbuilder\cores\makecontroller\core\makingthings\eeprom.o
 .ARM.attributes
                0x00000120       0x10 C:\mcbuilder\cores\makecontroller\core\makingthings\analogin.o
 .ARM.attributes
                0x00000130       0x10 C:\mcbuilder\cores\makecontroller\core\makingthings\serial.o
 .ARM.attributes
                0x00000140       0x10 C:\mcbuilder\cores\makecontroller\core\makingthings\pwm.o
 .ARM.attributes
                0x00000150       0x10 C:\mcbuilder\cores\makecontroller\core\makingthings\spi.o
 .ARM.attributes
                0x00000160       0x10 C:\mcbuilder\cores\makecontroller\core\makingthings\USB-CDC.o
 .ARM.attributes
                0x00000170       0x10 C:\mcbuilder\cores\makecontroller\core\makingthings\rtos.o
 .ARM.attributes
                0x00000180       0x10 C:\mcbuilder\cores\makecontroller\core\makingthings\usb.o
 .ARM.attributes
                0x00000190       0x10 C:\mcbuilder\cores\makecontroller\core\makingthings\network.o
 .ARM.attributes
                0x000001a0       0x10 C:\mcbuilder\cores\makecontroller\core\makingthings\system.o
 .ARM.attributes
                0x000001b0       0x10 C:\mcbuilder\cores\makecontroller\core\makingthings\io.o
 .ARM.attributes
                0x000001c0       0x10 C:\mcbuilder\cores\makecontroller\core\makingthings\led.o
 .ARM.attributes
                0x000001d0       0x10 C:\mcbuilder\cores\makecontroller\core\makingthings\timer.o
 .ARM.attributes
                0x000001e0       0x10 C:\mcbuilder\cores\makecontroller\core\makingthings\fasttimer.o
 .ARM.attributes
                0x000001f0       0x10 C:\mcbuilder\cores\makecontroller\core\makingthings\debugosc.o
 .ARM.attributes
                0x00000200       0x10 C:\mcbuilder\cores\makecontroller\core\lwip\src\core\tcp_out.o
 .ARM.attributes
                0x00000210       0x10 C:\mcbuilder\cores\makecontroller\core\lwip\src\core\ipv4\inet.o
 .ARM.attributes
                0x00000220       0x10 C:\mcbuilder\cores\makecontroller\core\lwip\src\core\mem.o
 .ARM.attributes
                0x00000230       0x10 C:\mcbuilder\cores\makecontroller\core\lwip\src\core\memp.o
 .ARM.attributes
                0x00000240       0x10 C:\mcbuilder\cores\makecontroller\core\lwip\src\core\netif.o
 .ARM.attributes
                0x00000250       0x10 C:\mcbuilder\cores\makecontroller\core\lwip\src\core\pbuf.o
 .ARM.attributes
                0x00000260       0x10 C:\mcbuilder\cores\makecontroller\core\lwip\src\core\raw.o
 .ARM.attributes
                0x00000270       0x10 C:\mcbuilder\cores\makecontroller\core\lwip\src\core\stats.o
 .ARM.attributes
                0x00000280       0x10 C:\mcbuilder\cores\makecontroller\core\lwip\src\core\sys.o
 .ARM.attributes
                0x00000290       0x10 C:\mcbuilder\cores\makecontroller\core\lwip\src\core\tcp.o
 .ARM.attributes
                0x000002a0       0x10 C:\mcbuilder\cores\makecontroller\core\lwip\src\core\tcp_in.o
 .ARM.attributes
                0x000002b0       0x10 C:\mcbuilder\cores\makecontroller\core\lwip\src\core\init.o
 .ARM.attributes
                0x000002c0       0x10 C:\mcbuilder\cores\makecontroller\core\lwip\src\core\ipv4\ip.o
 .ARM.attributes
                0x000002d0       0x10 C:\mcbuilder\cores\makecontroller\core\lwip\src\core\ipv4\ip_addr.o
 .ARM.attributes
                0x000002e0       0x10 C:\mcbuilder\cores\makecontroller\core\lwip\src\core\ipv4\icmp.o
 .ARM.attributes
                0x000002f0       0x10 C:\mcbuilder\cores\makecontroller\core\lwip\src\core\ipv4\inet_chksum.o
 .ARM.attributes
                0x00000300       0x10 C:\mcbuilder\cores\makecontroller\core\lwip\src\core\dhcp.o
 .ARM.attributes
                0x00000310       0x10 C:\mcbuilder\cores\makecontroller\core\lwip\src\core\dns.o
 .ARM.attributes
                0x00000320       0x10 C:\mcbuilder\cores\makecontroller\core\lwip\src\api\tcpip.o
 .ARM.attributes
                0x00000330       0x10 C:\mcbuilder\cores\makecontroller\core\lwip\src\api\api_msg.o
 .ARM.attributes
                0x00000340       0x10 C:\mcbuilder\cores\makecontroller\core\lwip\src\api\err.o
 .ARM.attributes
                0x00000350       0x10 C:\mcbuilder\cores\makecontroller\core\lwip\src\api\netbuf.o
 .ARM.attributes
                0x00000360       0x10 C:\mcbuilder\cores\makecontroller\core\lwip\src\api\api_lib.o
 .ARM.attributes
                0x00000370       0x10 C:\mcbuilder\cores\makecontroller\core\lwip\src\netif\etharp.o
 .ARM.attributes
                0x00000380       0x10 C:\mcbuilder\cores\makecontroller\core\lwip\contrib\port\FreeRTOS\AT91SAM7X\sys_arch.o
 .ARM.attributes
                0x00000390       0x10 C:\mcbuilder\cores\makecontroller\core\lwip\src\netif\ethernetif.o
 .ARM.attributes
                0x000003a0       0x10 C:\mcbuilder\cores\makecontroller\core\makingthings\SAM7_EMAC.o
 .ARM.attributes
                0x000003b0       0x10 C:\mcbuilder\cores\makecontroller\core\lwip\src\core\udp.o
 .ARM.attributes
                0x000003c0       0x10 C:\mcbuilder\cores\makecontroller\core\lwip\src\core\ipv4\ip_frag.o
 .ARM.attributes
                0x000003d0       0x10 C:\mcbuilder\cores\makecontroller\core\makingthings\osc.o
 .ARM.attributes
                0x000003e0       0x10 C:\mcbuilder\cores\makecontroller\core\makingthings\osc_patternmatch.o
 .ARM.attributes
                0x000003f0       0x10 C:\Sync\Desktop\todo\AinToWeb_public\AinToWeb_public.o
 .ARM.attributes
                0x00000400       0x10 C:\Users\bjepson\AppData\Local\Temp/ccXGDjSg.o
 .ARM.attributes
                0x00000410       0x10 c:/mcbuilder/resources/tools/arm-elf/bin/../lib/gcc/arm-elf/4.2.2/interwork\libgcc.a(_udivsi3.o)
 .ARM.attributes
                0x00000420       0x10 c:/mcbuilder/resources/tools/arm-elf/bin/../lib/gcc/arm-elf/4.2.2/interwork\libgcc.a(_divsi3.o)
 .ARM.attributes
                0x00000430       0x10 c:/mcbuilder/resources/tools/arm-elf/bin/../lib/gcc/arm-elf/4.2.2/interwork\libgcc.a(_umodsi3.o)
 .ARM.attributes
                0x00000440       0x10 c:/mcbuilder/resources/tools/arm-elf/bin/../lib/gcc/arm-elf/4.2.2/interwork\libgcc.a(_modsi3.o)
 .ARM.attributes
                0x00000450       0x10 c:/mcbuilder/resources/tools/arm-elf/bin/../lib/gcc/arm-elf/4.2.2/interwork\libgcc.a(_dvmd_tls.o)
 .ARM.attributes
                0x00000460       0x10 c:/mcbuilder/resources/tools/arm-elf/bin/../lib/gcc/arm-elf/4.2.2/../../../../arm-elf/lib/interwork\libc.a(lib_a-atoi.o)
 .ARM.attributes
                0x00000470       0x10 c:/mcbuilder/resources/tools/arm-elf/bin/../lib/gcc/arm-elf/4.2.2/../../../../arm-elf/lib/interwork\libc.a(lib_a-ctype_.o)
 .ARM.attributes
                0x00000480       0x10 c:/mcbuilder/resources/tools/arm-elf/bin/../lib/gcc/arm-elf/4.2.2/../../../../arm-elf/lib/interwork\libc.a(lib_a-memcpy.o)
 .ARM.attributes
                0x00000490       0x10 c:/mcbuilder/resources/tools/arm-elf/bin/../lib/gcc/arm-elf/4.2.2/../../../../arm-elf/lib/interwork\libc.a(lib_a-memset.o)
 .ARM.attributes
                0x000004a0       0x10 c:/mcbuilder/resources/tools/arm-elf/bin/../lib/gcc/arm-elf/4.2.2/../../../../arm-elf/lib/interwork\libc.a(lib_a-snprintf.o)
 .ARM.attributes
                0x000004b0       0x10 c:/mcbuilder/resources/tools/arm-elf/bin/../lib/gcc/arm-elf/4.2.2/../../../../arm-elf/lib/interwork\libc.a(lib_a-sprintf.o)
 .ARM.attributes
                0x000004c0       0x10 c:/mcbuilder/resources/tools/arm-elf/bin/../lib/gcc/arm-elf/4.2.2/../../../../arm-elf/lib/interwork\libc.a(lib_a-sscanf.o)
 .ARM.attributes
                0x000004d0       0x10 c:/mcbuilder/resources/tools/arm-elf/bin/../lib/gcc/arm-elf/4.2.2/../../../../arm-elf/lib/interwork\libc.a(lib_a-strcat.o)
 .ARM.attributes
                0x000004e0       0x10 c:/mcbuilder/resources/tools/arm-elf/bin/../lib/gcc/arm-elf/4.2.2/../../../../arm-elf/lib/interwork\libc.a(lib_a-strchr.o)
 .ARM.attributes
                0x000004f0       0x10 c:/mcbuilder/resources/tools/arm-elf/bin/../lib/gcc/arm-elf/4.2.2/../../../../arm-elf/lib/interwork\libc.a(lib_a-strcmp.o)
 .ARM.attributes
                0x00000500       0x10 c:/mcbuilder/resources/tools/arm-elf/bin/../lib/gcc/arm-elf/4.2.2/../../../../arm-elf/lib/interwork\libc.a(lib_a-strcpy.o)
 .ARM.attributes
                0x00000510       0x10 c:/mcbuilder/resources/tools/arm-elf/bin/../lib/gcc/arm-elf/4.2.2/../../../../arm-elf/lib/interwork\libc.a(lib_a-strlen.o)
 .ARM.attributes
                0x00000520       0x10 c:/mcbuilder/resources/tools/arm-elf/bin/../lib/gcc/arm-elf/4.2.2/../../../../arm-elf/lib/interwork\libc.a(lib_a-strncmp.o)
 .ARM.attributes
                0x00000530       0x10 c:/mcbuilder/resources/tools/arm-elf/bin/../lib/gcc/arm-elf/4.2.2/../../../../arm-elf/lib/interwork\libc.a(lib_a-strncpy.o)
 .ARM.attributes
                0x00000540       0x10 c:/mcbuilder/resources/tools/arm-elf/bin/../lib/gcc/arm-elf/4.2.2/../../../../arm-elf/lib/interwork\libc.a(lib_a-strtol.o)
 .ARM.attributes
                0x00000550       0x10 c:/mcbuilder/resources/tools/arm-elf/bin/../lib/gcc/arm-elf/4.2.2/../../../../arm-elf/lib/interwork\libc.a(lib_a-vfprintf.o)
 .ARM.attributes
                0x00000560       0x10 c:/mcbuilder/resources/tools/arm-elf/bin/../lib/gcc/arm-elf/4.2.2/../../../../arm-elf/lib/interwork\libc.a(lib_a-vfscanf.o)
 .ARM.attributes
                0x00000570       0x10 c:/mcbuilder/resources/tools/arm-elf/bin/../lib/gcc/arm-elf/4.2.2/../../../../arm-elf/lib/interwork\libc.a(lib_a-wsetup.o)
 .ARM.attributes
                0x00000580       0x10 c:/mcbuilder/resources/tools/arm-elf/bin/../lib/gcc/arm-elf/4.2.2/../../../../arm-elf/lib/interwork\libc.a(lib_a-dtoa.o)
 .ARM.attributes
                0x00000590       0x10 c:/mcbuilder/resources/tools/arm-elf/bin/../lib/gcc/arm-elf/4.2.2/../../../../arm-elf/lib/interwork\libc.a(lib_a-fflush.o)
 .ARM.attributes
                0x000005a0       0x10 c:/mcbuilder/resources/tools/arm-elf/bin/../lib/gcc/arm-elf/4.2.2/../../../../arm-elf/lib/interwork\libc.a(lib_a-findfp.o)
 .ARM.attributes
                0x000005b0       0x10 c:/mcbuilder/resources/tools/arm-elf/bin/../lib/gcc/arm-elf/4.2.2/../../../../arm-elf/lib/interwork\libc.a(lib_a-fread.o)
 .ARM.attributes
                0x000005c0       0x10 c:/mcbuilder/resources/tools/arm-elf/bin/../lib/gcc/arm-elf/4.2.2/../../../../arm-elf/lib/interwork\libc.a(lib_a-freer.o)
 .ARM.attributes
                0x000005d0       0x10 c:/mcbuilder/resources/tools/arm-elf/bin/../lib/gcc/arm-elf/4.2.2/../../../../arm-elf/lib/interwork\libc.a(lib_a-fvwrite.o)
 .ARM.attributes
                0x000005e0       0x10 c:/mcbuilder/resources/tools/arm-elf/bin/../lib/gcc/arm-elf/4.2.2/../../../../arm-elf/lib/interwork\libc.a(lib_a-fwalk.o)
 .ARM.attributes
                0x000005f0       0x10 c:/mcbuilder/resources/tools/arm-elf/bin/../lib/gcc/arm-elf/4.2.2/../../../../arm-elf/lib/interwork\libc.a(lib_a-impure.o)
 .ARM.attributes
                0x00000600       0x10 c:/mcbuilder/resources/tools/arm-elf/bin/../lib/gcc/arm-elf/4.2.2/../../../../arm-elf/lib/interwork\libc.a(lib_a-iswspace.o)
 .ARM.attributes
                0x00000610       0x10 c:/mcbuilder/resources/tools/arm-elf/bin/../lib/gcc/arm-elf/4.2.2/../../../../arm-elf/lib/interwork\libc.a(lib_a-locale.o)
 .ARM.attributes
                0x00000620       0x10 c:/mcbuilder/resources/tools/arm-elf/bin/../lib/gcc/arm-elf/4.2.2/../../../../arm-elf/lib/interwork\libc.a(lib_a-makebuf.o)
 .ARM.attributes
                0x00000630       0x10 c:/mcbuilder/resources/tools/arm-elf/bin/../lib/gcc/arm-elf/4.2.2/../../../../arm-elf/lib/interwork\libc.a(lib_a-mallocr.o)
 .ARM.attributes
                0x00000640       0x10 c:/mcbuilder/resources/tools/arm-elf/bin/../lib/gcc/arm-elf/4.2.2/../../../../arm-elf/lib/interwork\libc.a(lib_a-mbrtowc.o)
 .ARM.attributes
                0x00000650       0x10 c:/mcbuilder/resources/tools/arm-elf/bin/../lib/gcc/arm-elf/4.2.2/../../../../arm-elf/lib/interwork\libc.a(lib_a-mbtowc_r.o)
 .ARM.attributes
                0x00000660       0x10 c:/mcbuilder/resources/tools/arm-elf/bin/../lib/gcc/arm-elf/4.2.2/../../../../arm-elf/lib/interwork\libc.a(lib_a-memchr.o)
 .ARM.attributes
                0x00000670       0x10 c:/mcbuilder/resources/tools/arm-elf/bin/../lib/gcc/arm-elf/4.2.2/../../../../arm-elf/lib/interwork\libc.a(lib_a-memmove.o)
 .ARM.attributes
                0x00000680       0x10 c:/mcbuilder/resources/tools/arm-elf/bin/../lib/gcc/arm-elf/4.2.2/../../../../arm-elf/lib/interwork\libc.a(lib_a-mlock.o)
 .ARM.attributes
                0x00000690       0x10 c:/mcbuilder/resources/tools/arm-elf/bin/../lib/gcc/arm-elf/4.2.2/../../../../arm-elf/lib/interwork\libc.a(lib_a-mprec.o)
 .ARM.attributes
                0x000006a0       0x10 c:/mcbuilder/resources/tools/arm-elf/bin/../lib/gcc/arm-elf/4.2.2/../../../../arm-elf/lib/interwork\libc.a(lib_a-reallocr.o)
 .ARM.attributes
                0x000006b0       0x10 c:/mcbuilder/resources/tools/arm-elf/bin/../lib/gcc/arm-elf/4.2.2/../../../../arm-elf/lib/interwork\libc.a(lib_a-refill.o)
 .ARM.attributes
                0x000006c0       0x10 c:/mcbuilder/resources/tools/arm-elf/bin/../lib/gcc/arm-elf/4.2.2/../../../../arm-elf/lib/interwork\libc.a(lib_a-s_isinfd.o)
 .ARM.attributes
                0x000006d0       0x10 c:/mcbuilder/resources/tools/arm-elf/bin/../lib/gcc/arm-elf/4.2.2/../../../../arm-elf/lib/interwork\libc.a(lib_a-s_isnand.o)
 .ARM.attributes
                0x000006e0       0x10 c:/mcbuilder/resources/tools/arm-elf/bin/../lib/gcc/arm-elf/4.2.2/../../../../arm-elf/lib/interwork\libc.a(lib_a-sccl.o)
 .ARM.attributes
                0x000006f0       0x10 c:/mcbuilder/resources/tools/arm-elf/bin/../lib/gcc/arm-elf/4.2.2/../../../../arm-elf/lib/interwork\libc.a(lib_a-sf_nan.o)
 .ARM.attributes
                0x00000700       0x10 c:/mcbuilder/resources/tools/arm-elf/bin/../lib/gcc/arm-elf/4.2.2/../../../../arm-elf/lib/interwork\libc.a(lib_a-stdio.o)
 .ARM.attributes
                0x00000710       0x10 c:/mcbuilder/resources/tools/arm-elf/bin/../lib/gcc/arm-elf/4.2.2/../../../../arm-elf/lib/interwork\libc.a(lib_a-strtod.o)
 .ARM.attributes
                0x00000720       0x10 c:/mcbuilder/resources/tools/arm-elf/bin/../lib/gcc/arm-elf/4.2.2/../../../../arm-elf/lib/interwork\libc.a(lib_a-strtoul.o)
 .ARM.attributes
                0x00000730       0x10 c:/mcbuilder/resources/tools/arm-elf/bin/../lib/gcc/arm-elf/4.2.2/../../../../arm-elf/lib/interwork\libc.a(lib_a-syscalls.o)
 .ARM.attributes
                0x00000740       0x10 c:/mcbuilder/resources/tools/arm-elf/bin/../lib/gcc/arm-elf/4.2.2/../../../../arm-elf/lib/interwork\libc.a(lib_a-ungetc.o)
 .ARM.attributes
                0x00000750       0x10 c:/mcbuilder/resources/tools/arm-elf/bin/../lib/gcc/arm-elf/4.2.2/../../../../arm-elf/lib/interwork\libc.a(lib_a-callocr.o)
 .ARM.attributes
                0x00000760       0x10 c:/mcbuilder/resources/tools/arm-elf/bin/../lib/gcc/arm-elf/4.2.2/../../../../arm-elf/lib/interwork\libc.a(lib_a-errno.o)
 .ARM.attributes
                0x00000770       0x10 c:/mcbuilder/resources/tools/arm-elf/bin/../lib/gcc/arm-elf/4.2.2/../../../../arm-elf/lib/interwork\libc.a(lib_a-fclose.o)
 .ARM.attributes
                0x00000780       0x10 c:/mcbuilder/resources/tools/arm-elf/bin/../lib/gcc/arm-elf/4.2.2/../../../../arm-elf/lib/interwork\libc.a(lib_a-gdtoa-gethex.o)
 .ARM.attributes
                0x00000790       0x10 c:/mcbuilder/resources/tools/arm-elf/bin/../lib/gcc/arm-elf/4.2.2/../../../../arm-elf/lib/interwork\libc.a(lib_a-gdtoa-hexnan.o)
 .ARM.attributes
                0x000007a0       0x10 c:/mcbuilder/resources/tools/arm-elf/bin/../lib/gcc/arm-elf/4.2.2/interwork\libgcc.a(_addsubdf3.o)
 .ARM.attributes
                0x000007b0       0x10 c:/mcbuilder/resources/tools/arm-elf/bin/../lib/gcc/arm-elf/4.2.2/interwork\libgcc.a(_muldivdf3.o)
 .ARM.attributes
                0x000007c0       0x10 c:/mcbuilder/resources/tools/arm-elf/bin/../lib/gcc/arm-elf/4.2.2/interwork\libgcc.a(_cmpdf2.o)
 .ARM.attributes
                0x000007d0       0x10 c:/mcbuilder/resources/tools/arm-elf/bin/../lib/gcc/arm-elf/4.2.2/interwork\libgcc.a(_fixdfsi.o)
 .ARM.attributes
                0x000007e0       0x10 c:/mcbuilder/resources/tools/arm-elf/bin/../lib/gcc/arm-elf/4.2.2/interwork\libgcc.a(_fixunsdfsi.o)
 .ARM.attributes
                0x000007f0       0x10 c:/mcbuilder/resources/tools/arm-elf/bin/../lib/gcc/arm-elf/4.2.2/interwork\libgcc.a(_truncdfsf2.o)

.debug_frame    0x00000000     0x1304
 .debug_frame   0x00000000       0x2c c:/mcbuilder/resources/tools/arm-elf/bin/../lib/gcc/arm-elf/4.2.2/interwork\libgcc.a(_udivsi3.o)
 .debug_frame   0x0000002c       0x2c c:/mcbuilder/resources/tools/arm-elf/bin/../lib/gcc/arm-elf/4.2.2/interwork\libgcc.a(_divsi3.o)
 .debug_frame   0x00000058       0x2c c:/mcbuilder/resources/tools/arm-elf/bin/../lib/gcc/arm-elf/4.2.2/interwork\libgcc.a(_umodsi3.o)
 .debug_frame   0x00000084       0x2c c:/mcbuilder/resources/tools/arm-elf/bin/../lib/gcc/arm-elf/4.2.2/interwork\libgcc.a(_modsi3.o)
 .debug_frame   0x000000b0       0x40 c:/mcbuilder/resources/tools/arm-elf/bin/../lib/gcc/arm-elf/4.2.2/../../../../arm-elf/lib/interwork\libc.a(lib_a-atoi.o)
 .debug_frame   0x000000f0       0x28 c:/mcbuilder/resources/tools/arm-elf/bin/../lib/gcc/arm-elf/4.2.2/../../../../arm-elf/lib/interwork\libc.a(lib_a-memcpy.o)
 .debug_frame   0x00000118       0x20 c:/mcbuilder/resources/tools/arm-elf/bin/../lib/gcc/arm-elf/4.2.2/../../../../arm-elf/lib/interwork\libc.a(lib_a-memset.o)
 .debug_frame   0x00000138       0x5c c:/mcbuilder/resources/tools/arm-elf/bin/../lib/gcc/arm-elf/4.2.2/../../../../arm-elf/lib/interwork\libc.a(lib_a-snprintf.o)
 .debug_frame   0x00000194       0x5c c:/mcbuilder/resources/tools/arm-elf/bin/../lib/gcc/arm-elf/4.2.2/../../../../arm-elf/lib/interwork\libc.a(lib_a-sprintf.o)
 .debug_frame   0x000001f0       0x70 c:/mcbuilder/resources/tools/arm-elf/bin/../lib/gcc/arm-elf/4.2.2/../../../../arm-elf/lib/interwork\libc.a(lib_a-sscanf.o)
 .debug_frame   0x00000260       0x28 c:/mcbuilder/resources/tools/arm-elf/bin/../lib/gcc/arm-elf/4.2.2/../../../../arm-elf/lib/interwork\libc.a(lib_a-strcat.o)
 .debug_frame   0x00000288       0x28 c:/mcbuilder/resources/tools/arm-elf/bin/../lib/gcc/arm-elf/4.2.2/../../../../arm-elf/lib/interwork\libc.a(lib_a-strchr.o)
 .debug_frame   0x000002b0       0x20 c:/mcbuilder/resources/tools/arm-elf/bin/../lib/gcc/arm-elf/4.2.2/../../../../arm-elf/lib/interwork\libc.a(lib_a-strcmp.o)
 .debug_frame   0x000002d0       0x28 c:/mcbuilder/resources/tools/arm-elf/bin/../lib/gcc/arm-elf/4.2.2/../../../../arm-elf/lib/interwork\libc.a(lib_a-strcpy.o)
 .debug_frame   0x000002f8       0x20 c:/mcbuilder/resources/tools/arm-elf/bin/../lib/gcc/arm-elf/4.2.2/../../../../arm-elf/lib/interwork\libc.a(lib_a-strlen.o)
 .debug_frame   0x00000318       0x28 c:/mcbuilder/resources/tools/arm-elf/bin/../lib/gcc/arm-elf/4.2.2/../../../../arm-elf/lib/interwork\libc.a(lib_a-strncmp.o)
 .debug_frame   0x00000340       0x2c c:/mcbuilder/resources/tools/arm-elf/bin/../lib/gcc/arm-elf/4.2.2/../../../../arm-elf/lib/interwork\libc.a(lib_a-strncpy.o)
 .debug_frame   0x0000036c       0x50 c:/mcbuilder/resources/tools/arm-elf/bin/../lib/gcc/arm-elf/4.2.2/../../../../arm-elf/lib/interwork\libc.a(lib_a-strtol.o)
 .debug_frame   0x000003bc       0x70 c:/mcbuilder/resources/tools/arm-elf/bin/../lib/gcc/arm-elf/4.2.2/../../../../arm-elf/lib/interwork\libc.a(lib_a-vfprintf.o)
 .debug_frame   0x0000042c       0x94 c:/mcbuilder/resources/tools/arm-elf/bin/../lib/gcc/arm-elf/4.2.2/../../../../arm-elf/lib/interwork\libc.a(lib_a-vfscanf.o)
 .debug_frame   0x000004c0       0x2c c:/mcbuilder/resources/tools/arm-elf/bin/../lib/gcc/arm-elf/4.2.2/../../../../arm-elf/lib/interwork\libc.a(lib_a-wsetup.o)
 .debug_frame   0x000004ec       0x64 c:/mcbuilder/resources/tools/arm-elf/bin/../lib/gcc/arm-elf/4.2.2/../../../../arm-elf/lib/interwork\libc.a(lib_a-dtoa.o)
 .debug_frame   0x00000550       0x48 c:/mcbuilder/resources/tools/arm-elf/bin/../lib/gcc/arm-elf/4.2.2/../../../../arm-elf/lib/interwork\libc.a(lib_a-fflush.o)
 .debug_frame   0x00000598      0x12c c:/mcbuilder/resources/tools/arm-elf/bin/../lib/gcc/arm-elf/4.2.2/../../../../arm-elf/lib/interwork\libc.a(lib_a-findfp.o)
 .debug_frame   0x000006c4       0x54 c:/mcbuilder/resources/tools/arm-elf/bin/../lib/gcc/arm-elf/4.2.2/../../../../arm-elf/lib/interwork\libc.a(lib_a-fread.o)
 .debug_frame   0x00000718       0x50 c:/mcbuilder/resources/tools/arm-elf/bin/../lib/gcc/arm-elf/4.2.2/../../../../arm-elf/lib/interwork\libc.a(lib_a-freer.o)
 .debug_frame   0x00000768       0x38 c:/mcbuilder/resources/tools/arm-elf/bin/../lib/gcc/arm-elf/4.2.2/../../../../arm-elf/lib/interwork\libc.a(lib_a-fvwrite.o)
 .debug_frame   0x000007a0       0x58 c:/mcbuilder/resources/tools/arm-elf/bin/../lib/gcc/arm-elf/4.2.2/../../../../arm-elf/lib/interwork\libc.a(lib_a-fwalk.o)
 .debug_frame   0x000007f8       0x20 c:/mcbuilder/resources/tools/arm-elf/bin/../lib/gcc/arm-elf/4.2.2/../../../../arm-elf/lib/interwork\libc.a(lib_a-iswspace.o)
 .debug_frame   0x00000818       0x6c c:/mcbuilder/resources/tools/arm-elf/bin/../lib/gcc/arm-elf/4.2.2/../../../../arm-elf/lib/interwork\libc.a(lib_a-locale.o)
 .debug_frame   0x00000884       0x30 c:/mcbuilder/resources/tools/arm-elf/bin/../lib/gcc/arm-elf/4.2.2/../../../../arm-elf/lib/interwork\libc.a(lib_a-makebuf.o)
 .debug_frame   0x000008b4       0x38 c:/mcbuilder/resources/tools/arm-elf/bin/../lib/gcc/arm-elf/4.2.2/../../../../arm-elf/lib/interwork\libc.a(lib_a-mallocr.o)
 .debug_frame   0x000008ec       0x48 c:/mcbuilder/resources/tools/arm-elf/bin/../lib/gcc/arm-elf/4.2.2/../../../../arm-elf/lib/interwork\libc.a(lib_a-mbrtowc.o)
 .debug_frame   0x00000934       0x24 c:/mcbuilder/resources/tools/arm-elf/bin/../lib/gcc/arm-elf/4.2.2/../../../../arm-elf/lib/interwork\libc.a(lib_a-mbtowc_r.o)
 .debug_frame   0x00000958       0x28 c:/mcbuilder/resources/tools/arm-elf/bin/../lib/gcc/arm-elf/4.2.2/../../../../arm-elf/lib/interwork\libc.a(lib_a-memchr.o)
 .debug_frame   0x00000980       0x2c c:/mcbuilder/resources/tools/arm-elf/bin/../lib/gcc/arm-elf/4.2.2/../../../../arm-elf/lib/interwork\libc.a(lib_a-memmove.o)
 .debug_frame   0x000009ac       0x30 c:/mcbuilder/resources/tools/arm-elf/bin/../lib/gcc/arm-elf/4.2.2/../../../../arm-elf/lib/interwork\libc.a(lib_a-mlock.o)
 .debug_frame   0x000009dc      0x21c c:/mcbuilder/resources/tools/arm-elf/bin/../lib/gcc/arm-elf/4.2.2/../../../../arm-elf/lib/interwork\libc.a(lib_a-mprec.o)
 .debug_frame   0x00000bf8       0x38 c:/mcbuilder/resources/tools/arm-elf/bin/../lib/gcc/arm-elf/4.2.2/../../../../arm-elf/lib/interwork\libc.a(lib_a-reallocr.o)
 .debug_frame   0x00000c30       0x44 c:/mcbuilder/resources/tools/arm-elf/bin/../lib/gcc/arm-elf/4.2.2/../../../../arm-elf/lib/interwork\libc.a(lib_a-refill.o)
 .debug_frame   0x00000c74       0x28 c:/mcbuilder/resources/tools/arm-elf/bin/../lib/gcc/arm-elf/4.2.2/../../../../arm-elf/lib/interwork\libc.a(lib_a-s_isinfd.o)
 .debug_frame   0x00000c9c       0x28 c:/mcbuilder/resources/tools/arm-elf/bin/../lib/gcc/arm-elf/4.2.2/../../../../arm-elf/lib/interwork\libc.a(lib_a-s_isnand.o)
 .debug_frame   0x00000cc4       0x2c c:/mcbuilder/resources/tools/arm-elf/bin/../lib/gcc/arm-elf/4.2.2/../../../../arm-elf/lib/interwork\libc.a(lib_a-sccl.o)
 .debug_frame   0x00000cf0       0x20 c:/mcbuilder/resources/tools/arm-elf/bin/../lib/gcc/arm-elf/4.2.2/../../../../arm-elf/lib/interwork\libc.a(lib_a-sf_nan.o)
 .debug_frame   0x00000d10       0x78 c:/mcbuilder/resources/tools/arm-elf/bin/../lib/gcc/arm-elf/4.2.2/../../../../arm-elf/lib/interwork\libc.a(lib_a-stdio.o)
 .debug_frame   0x00000d88       0x78 c:/mcbuilder/resources/tools/arm-elf/bin/../lib/gcc/arm-elf/4.2.2/../../../../arm-elf/lib/interwork\libc.a(lib_a-strtod.o)
 .debug_frame   0x00000e00       0x50 c:/mcbuilder/resources/tools/arm-elf/bin/../lib/gcc/arm-elf/4.2.2/../../../../arm-elf/lib/interwork\libc.a(lib_a-strtoul.o)
 .debug_frame   0x00000e50      0x308 c:/mcbuilder/resources/tools/arm-elf/bin/../lib/gcc/arm-elf/4.2.2/../../../../arm-elf/lib/interwork\libc.a(lib_a-syscalls.o)
 .debug_frame   0x00001158       0x5c c:/mcbuilder/resources/tools/arm-elf/bin/../lib/gcc/arm-elf/4.2.2/../../../../arm-elf/lib/interwork\libc.a(lib_a-ungetc.o)
 .debug_frame   0x000011b4       0x28 c:/mcbuilder/resources/tools/arm-elf/bin/../lib/gcc/arm-elf/4.2.2/../../../../arm-elf/lib/interwork\libc.a(lib_a-callocr.o)
 .debug_frame   0x000011dc       0x20 c:/mcbuilder/resources/tools/arm-elf/bin/../lib/gcc/arm-elf/4.2.2/../../../../arm-elf/lib/interwork\libc.a(lib_a-errno.o)
 .debug_frame   0x000011fc       0x3c c:/mcbuilder/resources/tools/arm-elf/bin/../lib/gcc/arm-elf/4.2.2/../../../../arm-elf/lib/interwork\libc.a(lib_a-fclose.o)
 .debug_frame   0x00001238       0x7c c:/mcbuilder/resources/tools/arm-elf/bin/../lib/gcc/arm-elf/4.2.2/../../../../arm-elf/lib/interwork\libc.a(lib_a-gdtoa-gethex.o)
 .debug_frame   0x000012b4       0x50 c:/mcbuilder/resources/tools/arm-elf/bin/../lib/gcc/arm-elf/4.2.2/../../../../arm-elf/lib/interwork\libc.a(lib_a-gdtoa-hexnan.o)

.debug_line     0x00000000     0x5ec9
 .debug_line    0x00000000       0x84 c:/mcbuilder/resources/tools/arm-elf/bin/../lib/gcc/arm-elf/4.2.2/interwork\libgcc.a(_udivsi3.o)
 .debug_line    0x00000084       0x90 c:/mcbuilder/resources/tools/arm-elf/bin/../lib/gcc/arm-elf/4.2.2/interwork\libgcc.a(_divsi3.o)
 .debug_line    0x00000114       0x6e c:/mcbuilder/resources/tools/arm-elf/bin/../lib/gcc/arm-elf/4.2.2/interwork\libgcc.a(_umodsi3.o)
 .debug_line    0x00000182       0x74 c:/mcbuilder/resources/tools/arm-elf/bin/../lib/gcc/arm-elf/4.2.2/interwork\libgcc.a(_modsi3.o)
 .debug_line    0x000001f6       0x5d c:/mcbuilder/resources/tools/arm-elf/bin/../lib/gcc/arm-elf/4.2.2/interwork\libgcc.a(_dvmd_tls.o)
 .debug_line    0x00000253      0x123 c:/mcbuilder/resources/tools/arm-elf/bin/../lib/gcc/arm-elf/4.2.2/../../../../arm-elf/lib/interwork\libc.a(lib_a-atoi.o)
 .debug_line    0x00000376       0x5b c:/mcbuilder/resources/tools/arm-elf/bin/../lib/gcc/arm-elf/4.2.2/../../../../arm-elf/lib/interwork\libc.a(lib_a-ctype_.o)
 .debug_line    0x000003d1       0xe6 c:/mcbuilder/resources/tools/arm-elf/bin/../lib/gcc/arm-elf/4.2.2/../../../../arm-elf/lib/interwork\libc.a(lib_a-memcpy.o)
 .debug_line    0x000004b7       0xeb c:/mcbuilder/resources/tools/arm-elf/bin/../lib/gcc/arm-elf/4.2.2/../../../../arm-elf/lib/interwork\libc.a(lib_a-memset.o)
 .debug_line    0x000005a2      0x1bb c:/mcbuilder/resources/tools/arm-elf/bin/../lib/gcc/arm-elf/4.2.2/../../../../arm-elf/lib/interwork\libc.a(lib_a-snprintf.o)
 .debug_line    0x0000075d      0x1b0 c:/mcbuilder/resources/tools/arm-elf/bin/../lib/gcc/arm-elf/4.2.2/../../../../arm-elf/lib/interwork\libc.a(lib_a-sprintf.o)
 .debug_line    0x0000090d      0x1b7 c:/mcbuilder/resources/tools/arm-elf/bin/../lib/gcc/arm-elf/4.2.2/../../../../arm-elf/lib/interwork\libc.a(lib_a-sscanf.o)
 .debug_line    0x00000ac4       0x7d c:/mcbuilder/resources/tools/arm-elf/bin/../lib/gcc/arm-elf/4.2.2/../../../../arm-elf/lib/interwork\libc.a(lib_a-strcat.o)
 .debug_line    0x00000b41       0x82 c:/mcbuilder/resources/tools/arm-elf/bin/../lib/gcc/arm-elf/4.2.2/../../../../arm-elf/lib/interwork\libc.a(lib_a-strchr.o)
 .debug_line    0x00000bc3       0x87 c:/mcbuilder/resources/tools/arm-elf/bin/../lib/gcc/arm-elf/4.2.2/../../../../arm-elf/lib/interwork\libc.a(lib_a-strcmp.o)
 .debug_line    0x00000c4a       0x7c c:/mcbuilder/resources/tools/arm-elf/bin/../lib/gcc/arm-elf/4.2.2/../../../../arm-elf/lib/interwork\libc.a(lib_a-strcpy.o)
 .debug_line    0x00000cc6       0xc3 c:/mcbuilder/resources/tools/arm-elf/bin/../lib/gcc/arm-elf/4.2.2/../../../../arm-elf/lib/interwork\libc.a(lib_a-strlen.o)
 .debug_line    0x00000d89       0xf6 c:/mcbuilder/resources/tools/arm-elf/bin/../lib/gcc/arm-elf/4.2.2/../../../../arm-elf/lib/interwork\libc.a(lib_a-strncmp.o)
 .debug_line    0x00000e7f       0xe3 c:/mcbuilder/resources/tools/arm-elf/bin/../lib/gcc/arm-elf/4.2.2/../../../../arm-elf/lib/interwork\libc.a(lib_a-strncpy.o)
 .debug_line    0x00000f62      0x1af c:/mcbuilder/resources/tools/arm-elf/bin/../lib/gcc/arm-elf/4.2.2/../../../../arm-elf/lib/interwork\libc.a(lib_a-strtol.o)
 .debug_line    0x00001111      0x54c c:/mcbuilder/resources/tools/arm-elf/bin/../lib/gcc/arm-elf/4.2.2/../../../../arm-elf/lib/interwork\libc.a(lib_a-vfprintf.o)
 .debug_line    0x0000165d      0x508 c:/mcbuilder/resources/tools/arm-elf/bin/../lib/gcc/arm-elf/4.2.2/../../../../arm-elf/lib/interwork\libc.a(lib_a-vfscanf.o)
 .debug_line    0x00001b65      0x18d c:/mcbuilder/resources/tools/arm-elf/bin/../lib/gcc/arm-elf/4.2.2/../../../../arm-elf/lib/interwork\libc.a(lib_a-wsetup.o)
 .debug_line    0x00001cf2      0x4bb c:/mcbuilder/resources/tools/arm-elf/bin/../lib/gcc/arm-elf/4.2.2/../../../../arm-elf/lib/interwork\libc.a(lib_a-dtoa.o)
 .debug_line    0x000021ad      0x1d4 c:/mcbuilder/resources/tools/arm-elf/bin/../lib/gcc/arm-elf/4.2.2/../../../../arm-elf/lib/interwork\libc.a(lib_a-fflush.o)
 .debug_line    0x00002381      0x205 c:/mcbuilder/resources/tools/arm-elf/bin/../lib/gcc/arm-elf/4.2.2/../../../../arm-elf/lib/interwork\libc.a(lib_a-findfp.o)
 .debug_line    0x00002586      0x1ca c:/mcbuilder/resources/tools/arm-elf/bin/../lib/gcc/arm-elf/4.2.2/../../../../arm-elf/lib/interwork\libc.a(lib_a-fread.o)
 .debug_line    0x00002750      0x1af c:/mcbuilder/resources/tools/arm-elf/bin/../lib/gcc/arm-elf/4.2.2/../../../../arm-elf/lib/interwork\libc.a(lib_a-freer.o)
 .debug_line    0x000028ff      0x240 c:/mcbuilder/resources/tools/arm-elf/bin/../lib/gcc/arm-elf/4.2.2/../../../../arm-elf/lib/interwork\libc.a(lib_a-fvwrite.o)
 .debug_line    0x00002b3f      0x18b c:/mcbuilder/resources/tools/arm-elf/bin/../lib/gcc/arm-elf/4.2.2/../../../../arm-elf/lib/interwork\libc.a(lib_a-fwalk.o)
 .debug_line    0x00002cca      0x10d c:/mcbuilder/resources/tools/arm-elf/bin/../lib/gcc/arm-elf/4.2.2/../../../../arm-elf/lib/interwork\libc.a(lib_a-impure.o)
 .debug_line    0x00002dd7      0x111 c:/mcbuilder/resources/tools/arm-elf/bin/../lib/gcc/arm-elf/4.2.2/../../../../arm-elf/lib/interwork\libc.a(lib_a-iswspace.o)
 .debug_line    0x00002ee8      0x188 c:/mcbuilder/resources/tools/arm-elf/bin/../lib/gcc/arm-elf/4.2.2/../../../../arm-elf/lib/interwork\libc.a(lib_a-locale.o)
 .debug_line    0x00003070      0x1bd c:/mcbuilder/resources/tools/arm-elf/bin/../lib/gcc/arm-elf/4.2.2/../../../../arm-elf/lib/interwork\libc.a(lib_a-makebuf.o)
 .debug_line    0x0000322d      0x251 c:/mcbuilder/resources/tools/arm-elf/bin/../lib/gcc/arm-elf/4.2.2/../../../../arm-elf/lib/interwork\libc.a(lib_a-mallocr.o)
 .debug_line    0x0000347e      0x17f c:/mcbuilder/resources/tools/arm-elf/bin/../lib/gcc/arm-elf/4.2.2/../../../../arm-elf/lib/interwork\libc.a(lib_a-mbrtowc.o)
 .debug_line    0x000035fd      0x16f c:/mcbuilder/resources/tools/arm-elf/bin/../lib/gcc/arm-elf/4.2.2/../../../../arm-elf/lib/interwork\libc.a(lib_a-mbtowc_r.o)
 .debug_line    0x0000376c       0xf8 c:/mcbuilder/resources/tools/arm-elf/bin/../lib/gcc/arm-elf/4.2.2/../../../../arm-elf/lib/interwork\libc.a(lib_a-memchr.o)
 .debug_line    0x00003864       0xf0 c:/mcbuilder/resources/tools/arm-elf/bin/../lib/gcc/arm-elf/4.2.2/../../../../arm-elf/lib/interwork\libc.a(lib_a-memmove.o)
 .debug_line    0x00003954      0x11f c:/mcbuilder/resources/tools/arm-elf/bin/../lib/gcc/arm-elf/4.2.2/../../../../arm-elf/lib/interwork\libc.a(lib_a-mlock.o)
 .debug_line    0x00003a73      0x45c c:/mcbuilder/resources/tools/arm-elf/bin/../lib/gcc/arm-elf/4.2.2/../../../../arm-elf/lib/interwork\libc.a(lib_a-mprec.o)
 .debug_line    0x00003ecf      0x1d1 c:/mcbuilder/resources/tools/arm-elf/bin/../lib/gcc/arm-elf/4.2.2/../../../../arm-elf/lib/interwork\libc.a(lib_a-reallocr.o)
 .debug_line    0x000040a0      0x1b2 c:/mcbuilder/resources/tools/arm-elf/bin/../lib/gcc/arm-elf/4.2.2/../../../../arm-elf/lib/interwork\libc.a(lib_a-refill.o)
 .debug_line    0x00004252       0xd7 c:/mcbuilder/resources/tools/arm-elf/bin/../lib/gcc/arm-elf/4.2.2/../../../../arm-elf/lib/interwork\libc.a(lib_a-s_isinfd.o)
 .debug_line    0x00004329       0xd8 c:/mcbuilder/resources/tools/arm-elf/bin/../lib/gcc/arm-elf/4.2.2/../../../../arm-elf/lib/interwork\libc.a(lib_a-s_isnand.o)
 .debug_line    0x00004401       0xd8 c:/mcbuilder/resources/tools/arm-elf/bin/../lib/gcc/arm-elf/4.2.2/../../../../arm-elf/lib/interwork\libc.a(lib_a-sccl.o)
 .debug_line    0x000044d9       0x6c c:/mcbuilder/resources/tools/arm-elf/bin/../lib/gcc/arm-elf/4.2.2/../../../../arm-elf/lib/interwork\libc.a(lib_a-sf_nan.o)
 .debug_line    0x00004545      0x190 c:/mcbuilder/resources/tools/arm-elf/bin/../lib/gcc/arm-elf/4.2.2/../../../../arm-elf/lib/interwork\libc.a(lib_a-stdio.o)
 .debug_line    0x000046d5      0x478 c:/mcbuilder/resources/tools/arm-elf/bin/../lib/gcc/arm-elf/4.2.2/../../../../arm-elf/lib/interwork\libc.a(lib_a-strtod.o)
 .debug_line    0x00004b4d      0x1aa c:/mcbuilder/resources/tools/arm-elf/bin/../lib/gcc/arm-elf/4.2.2/../../../../arm-elf/lib/interwork\libc.a(lib_a-strtoul.o)
 .debug_line    0x00004cf7      0x35f c:/mcbuilder/resources/tools/arm-elf/bin/../lib/gcc/arm-elf/4.2.2/../../../../arm-elf/lib/interwork\libc.a(lib_a-syscalls.o)
 .debug_line    0x00005056      0x1cc c:/mcbuilder/resources/tools/arm-elf/bin/../lib/gcc/arm-elf/4.2.2/../../../../arm-elf/lib/interwork\libc.a(lib_a-ungetc.o)
 .debug_line    0x00005222      0x129 c:/mcbuilder/resources/tools/arm-elf/bin/../lib/gcc/arm-elf/4.2.2/../../../../arm-elf/lib/interwork\libc.a(lib_a-callocr.o)
 .debug_line    0x0000534b      0x11c c:/mcbuilder/resources/tools/arm-elf/bin/../lib/gcc/arm-elf/4.2.2/../../../../arm-elf/lib/interwork\libc.a(lib_a-errno.o)
 .debug_line    0x00005467      0x184 c:/mcbuilder/resources/tools/arm-elf/bin/../lib/gcc/arm-elf/4.2.2/../../../../arm-elf/lib/interwork\libc.a(lib_a-fclose.o)
 .debug_line    0x000055eb      0x2c4 c:/mcbuilder/resources/tools/arm-elf/bin/../lib/gcc/arm-elf/4.2.2/../../../../arm-elf/lib/interwork\libc.a(lib_a-gdtoa-gethex.o)
 .debug_line    0x000058af      0x12f c:/mcbuilder/resources/tools/arm-elf/bin/../lib/gcc/arm-elf/4.2.2/../../../../arm-elf/lib/interwork\libc.a(lib_a-gdtoa-hexnan.o)
 .debug_line    0x000059de      0x165 c:/mcbuilder/resources/tools/arm-elf/bin/../lib/gcc/arm-elf/4.2.2/interwork\libgcc.a(_addsubdf3.o)
 .debug_line    0x00005b43      0x17a c:/mcbuilder/resources/tools/arm-elf/bin/../lib/gcc/arm-elf/4.2.2/interwork\libgcc.a(_muldivdf3.o)
 .debug_line    0x00005cbd       0xa7 c:/mcbuilder/resources/tools/arm-elf/bin/../lib/gcc/arm-elf/4.2.2/interwork\libgcc.a(_cmpdf2.o)
 .debug_line    0x00005d64       0x72 c:/mcbuilder/resources/tools/arm-elf/bin/../lib/gcc/arm-elf/4.2.2/interwork\libgcc.a(_fixdfsi.o)
 .debug_line    0x00005dd6       0x70 c:/mcbuilder/resources/tools/arm-elf/bin/../lib/gcc/arm-elf/4.2.2/interwork\libgcc.a(_fixunsdfsi.o)
 .debug_line    0x00005e46       0x83 c:/mcbuilder/resources/tools/arm-elf/bin/../lib/gcc/arm-elf/4.2.2/interwork\libgcc.a(_truncdfsf2.o)

.debug_info     0x00000000    0x1a495
 .debug_info    0x00000000       0x7a c:/mcbuilder/resources/tools/arm-elf/bin/../lib/gcc/arm-elf/4.2.2/interwork\libgcc.a(_udivsi3.o)
 .debug_info    0x0000007a       0x7a c:/mcbuilder/resources/tools/arm-elf/bin/../lib/gcc/arm-elf/4.2.2/interwork\libgcc.a(_divsi3.o)
 .debug_info    0x000000f4       0x7a c:/mcbuilder/resources/tools/arm-elf/bin/../lib/gcc/arm-elf/4.2.2/interwork\libgcc.a(_umodsi3.o)
 .debug_info    0x0000016e       0x7a c:/mcbuilder/resources/tools/arm-elf/bin/../lib/gcc/arm-elf/4.2.2/interwork\libgcc.a(_modsi3.o)
 .debug_info    0x000001e8       0x7a c:/mcbuilder/resources/tools/arm-elf/bin/../lib/gcc/arm-elf/4.2.2/interwork\libgcc.a(_dvmd_tls.o)
 .debug_info    0x00000262      0x960 c:/mcbuilder/resources/tools/arm-elf/bin/../lib/gcc/arm-elf/4.2.2/../../../../arm-elf/lib/interwork\libc.a(lib_a-atoi.o)
 .debug_info    0x00000bc2       0x75 c:/mcbuilder/resources/tools/arm-elf/bin/../lib/gcc/arm-elf/4.2.2/../../../../arm-elf/lib/interwork\libc.a(lib_a-ctype_.o)
 .debug_info    0x00000c37      0x10e c:/mcbuilder/resources/tools/arm-elf/bin/../lib/gcc/arm-elf/4.2.2/../../../../arm-elf/lib/interwork\libc.a(lib_a-memcpy.o)
 .debug_info    0x00000d45      0x111 c:/mcbuilder/resources/tools/arm-elf/bin/../lib/gcc/arm-elf/4.2.2/../../../../arm-elf/lib/interwork\libc.a(lib_a-memset.o)
 .debug_info    0x00000e56      0xa45 c:/mcbuilder/resources/tools/arm-elf/bin/../lib/gcc/arm-elf/4.2.2/../../../../arm-elf/lib/interwork\libc.a(lib_a-snprintf.o)
 .debug_info    0x0000189b      0xa14 c:/mcbuilder/resources/tools/arm-elf/bin/../lib/gcc/arm-elf/4.2.2/../../../../arm-elf/lib/interwork\libc.a(lib_a-sprintf.o)
 .debug_info    0x000022af      0xa6a c:/mcbuilder/resources/tools/arm-elf/bin/../lib/gcc/arm-elf/4.2.2/../../../../arm-elf/lib/interwork\libc.a(lib_a-sscanf.o)
 .debug_info    0x00002d19       0xe9 c:/mcbuilder/resources/tools/arm-elf/bin/../lib/gcc/arm-elf/4.2.2/../../../../arm-elf/lib/interwork\libc.a(lib_a-strcat.o)
 .debug_info    0x00002e02      0x112 c:/mcbuilder/resources/tools/arm-elf/bin/../lib/gcc/arm-elf/4.2.2/../../../../arm-elf/lib/interwork\libc.a(lib_a-strchr.o)
 .debug_info    0x00002f14       0xdb c:/mcbuilder/resources/tools/arm-elf/bin/../lib/gcc/arm-elf/4.2.2/../../../../arm-elf/lib/interwork\libc.a(lib_a-strcmp.o)
 .debug_info    0x00002fef      0x106 c:/mcbuilder/resources/tools/arm-elf/bin/../lib/gcc/arm-elf/4.2.2/../../../../arm-elf/lib/interwork\libc.a(lib_a-strcpy.o)
 .debug_info    0x000030f5       0xd7 c:/mcbuilder/resources/tools/arm-elf/bin/../lib/gcc/arm-elf/4.2.2/../../../../arm-elf/lib/interwork\libc.a(lib_a-strlen.o)
 .debug_info    0x000031cc       0xf5 c:/mcbuilder/resources/tools/arm-elf/bin/../lib/gcc/arm-elf/4.2.2/../../../../arm-elf/lib/interwork\libc.a(lib_a-strncmp.o)
 .debug_info    0x000032c1      0x128 c:/mcbuilder/resources/tools/arm-elf/bin/../lib/gcc/arm-elf/4.2.2/../../../../arm-elf/lib/interwork\libc.a(lib_a-strncpy.o)
 .debug_info    0x000033e9      0xa26 c:/mcbuilder/resources/tools/arm-elf/bin/../lib/gcc/arm-elf/4.2.2/../../../../arm-elf/lib/interwork\libc.a(lib_a-strtol.o)
 .debug_info    0x00003e0f     0x10c4 c:/mcbuilder/resources/tools/arm-elf/bin/../lib/gcc/arm-elf/4.2.2/../../../../arm-elf/lib/interwork\libc.a(lib_a-vfprintf.o)
 .debug_info    0x00004ed3      0xe6b c:/mcbuilder/resources/tools/arm-elf/bin/../lib/gcc/arm-elf/4.2.2/../../../../arm-elf/lib/interwork\libc.a(lib_a-vfscanf.o)
 .debug_info    0x00005d3e      0x959 c:/mcbuilder/resources/tools/arm-elf/bin/../lib/gcc/arm-elf/4.2.2/../../../../arm-elf/lib/interwork\libc.a(lib_a-wsetup.o)
 .debug_info    0x00006697      0xd67 c:/mcbuilder/resources/tools/arm-elf/bin/../lib/gcc/arm-elf/4.2.2/../../../../arm-elf/lib/interwork\libc.a(lib_a-dtoa.o)
 .debug_info    0x000073fe      0x9f8 c:/mcbuilder/resources/tools/arm-elf/bin/../lib/gcc/arm-elf/4.2.2/../../../../arm-elf/lib/interwork\libc.a(lib_a-fflush.o)
 .debug_info    0x00007df6      0xb79 c:/mcbuilder/resources/tools/arm-elf/bin/../lib/gcc/arm-elf/4.2.2/../../../../arm-elf/lib/interwork\libc.a(lib_a-findfp.o)
 .debug_info    0x0000896f      0xa6c c:/mcbuilder/resources/tools/arm-elf/bin/../lib/gcc/arm-elf/4.2.2/../../../../arm-elf/lib/interwork\libc.a(lib_a-fread.o)
 .debug_info    0x000093db      0xbbf c:/mcbuilder/resources/tools/arm-elf/bin/../lib/gcc/arm-elf/4.2.2/../../../../arm-elf/lib/interwork\libc.a(lib_a-freer.o)
 .debug_info    0x00009f9a      0xa80 c:/mcbuilder/resources/tools/arm-elf/bin/../lib/gcc/arm-elf/4.2.2/../../../../arm-elf/lib/interwork\libc.a(lib_a-fvwrite.o)
 .debug_info    0x0000aa1a      0xae5 c:/mcbuilder/resources/tools/arm-elf/bin/../lib/gcc/arm-elf/4.2.2/../../../../arm-elf/lib/interwork\libc.a(lib_a-fwalk.o)
 .debug_info    0x0000b4ff      0x939 c:/mcbuilder/resources/tools/arm-elf/bin/../lib/gcc/arm-elf/4.2.2/../../../../arm-elf/lib/interwork\libc.a(lib_a-impure.o)
 .debug_info    0x0000be38       0xeb c:/mcbuilder/resources/tools/arm-elf/bin/../lib/gcc/arm-elf/4.2.2/../../../../arm-elf/lib/interwork\libc.a(lib_a-iswspace.o)
 .debug_info    0x0000bf23      0xb99 c:/mcbuilder/resources/tools/arm-elf/bin/../lib/gcc/arm-elf/4.2.2/../../../../arm-elf/lib/interwork\libc.a(lib_a-locale.o)
 .debug_info    0x0000cabc      0xb1a c:/mcbuilder/resources/tools/arm-elf/bin/../lib/gcc/arm-elf/4.2.2/../../../../arm-elf/lib/interwork\libc.a(lib_a-makebuf.o)
 .debug_info    0x0000d5d6      0xcc6 c:/mcbuilder/resources/tools/arm-elf/bin/../lib/gcc/arm-elf/4.2.2/../../../../arm-elf/lib/interwork\libc.a(lib_a-mallocr.o)
 .debug_info    0x0000e29c      0xa03 c:/mcbuilder/resources/tools/arm-elf/bin/../lib/gcc/arm-elf/4.2.2/../../../../arm-elf/lib/interwork\libc.a(lib_a-mbrtowc.o)
 .debug_info    0x0000ec9f      0x9a4 c:/mcbuilder/resources/tools/arm-elf/bin/../lib/gcc/arm-elf/4.2.2/../../../../arm-elf/lib/interwork\libc.a(lib_a-mbtowc_r.o)
 .debug_info    0x0000f643      0x134 c:/mcbuilder/resources/tools/arm-elf/bin/../lib/gcc/arm-elf/4.2.2/../../../../arm-elf/lib/interwork\libc.a(lib_a-memchr.o)
 .debug_info    0x0000f777      0x142 c:/mcbuilder/resources/tools/arm-elf/bin/../lib/gcc/arm-elf/4.2.2/../../../../arm-elf/lib/interwork\libc.a(lib_a-memmove.o)
 .debug_info    0x0000f8b9      0x953 c:/mcbuilder/resources/tools/arm-elf/bin/../lib/gcc/arm-elf/4.2.2/../../../../arm-elf/lib/interwork\libc.a(lib_a-mlock.o)
 .debug_info    0x0001020c     0x141f c:/mcbuilder/resources/tools/arm-elf/bin/../lib/gcc/arm-elf/4.2.2/../../../../arm-elf/lib/interwork\libc.a(lib_a-mprec.o)
 .debug_info    0x0001162b      0xbcb c:/mcbuilder/resources/tools/arm-elf/bin/../lib/gcc/arm-elf/4.2.2/../../../../arm-elf/lib/interwork\libc.a(lib_a-reallocr.o)
 .debug_info    0x000121f6      0x989 c:/mcbuilder/resources/tools/arm-elf/bin/../lib/gcc/arm-elf/4.2.2/../../../../arm-elf/lib/interwork\libc.a(lib_a-refill.o)
 .debug_info    0x00012b7f      0x14d c:/mcbuilder/resources/tools/arm-elf/bin/../lib/gcc/arm-elf/4.2.2/../../../../arm-elf/lib/interwork\libc.a(lib_a-s_isinfd.o)
 .debug_info    0x00012ccc      0x14f c:/mcbuilder/resources/tools/arm-elf/bin/../lib/gcc/arm-elf/4.2.2/../../../../arm-elf/lib/interwork\libc.a(lib_a-s_isnand.o)
 .debug_info    0x00012e1b       0xf9 c:/mcbuilder/resources/tools/arm-elf/bin/../lib/gcc/arm-elf/4.2.2/../../../../arm-elf/lib/interwork\libc.a(lib_a-sccl.o)
 .debug_info    0x00012f14       0xc6 c:/mcbuilder/resources/tools/arm-elf/bin/../lib/gcc/arm-elf/4.2.2/../../../../arm-elf/lib/interwork\libc.a(lib_a-sf_nan.o)
 .debug_info    0x00012fda      0xaac c:/mcbuilder/resources/tools/arm-elf/bin/../lib/gcc/arm-elf/4.2.2/../../../../arm-elf/lib/interwork\libc.a(lib_a-stdio.o)
 .debug_info    0x00013a86      0xf4d c:/mcbuilder/resources/tools/arm-elf/bin/../lib/gcc/arm-elf/4.2.2/../../../../arm-elf/lib/interwork\libc.a(lib_a-strtod.o)
 .debug_info    0x000149d3      0xa1e c:/mcbuilder/resources/tools/arm-elf/bin/../lib/gcc/arm-elf/4.2.2/../../../../arm-elf/lib/interwork\libc.a(lib_a-strtoul.o)
 .debug_info    0x000153f1     0x1732 c:/mcbuilder/resources/tools/arm-elf/bin/../lib/gcc/arm-elf/4.2.2/../../../../arm-elf/lib/interwork\libc.a(lib_a-syscalls.o)
 .debug_info    0x00016b23      0x9f2 c:/mcbuilder/resources/tools/arm-elf/bin/../lib/gcc/arm-elf/4.2.2/../../../../arm-elf/lib/interwork\libc.a(lib_a-ungetc.o)
 .debug_info    0x00017515      0xa11 c:/mcbuilder/resources/tools/arm-elf/bin/../lib/gcc/arm-elf/4.2.2/../../../../arm-elf/lib/interwork\libc.a(lib_a-callocr.o)
 .debug_info    0x00017f26      0x92a c:/mcbuilder/resources/tools/arm-elf/bin/../lib/gcc/arm-elf/4.2.2/../../../../arm-elf/lib/interwork\libc.a(lib_a-errno.o)
 .debug_info    0x00018850      0x990 c:/mcbuilder/resources/tools/arm-elf/bin/../lib/gcc/arm-elf/4.2.2/../../../../arm-elf/lib/interwork\libc.a(lib_a-fclose.o)
 .debug_info    0x000191e0      0xd44 c:/mcbuilder/resources/tools/arm-elf/bin/../lib/gcc/arm-elf/4.2.2/../../../../arm-elf/lib/interwork\libc.a(lib_a-gdtoa-gethex.o)
 .debug_info    0x00019f24      0x29b c:/mcbuilder/resources/tools/arm-elf/bin/../lib/gcc/arm-elf/4.2.2/../../../../arm-elf/lib/interwork\libc.a(lib_a-gdtoa-hexnan.o)
 .debug_info    0x0001a1bf       0x79 c:/mcbuilder/resources/tools/arm-elf/bin/../lib/gcc/arm-elf/4.2.2/interwork\libgcc.a(_addsubdf3.o)
 .debug_info    0x0001a238       0x79 c:/mcbuilder/resources/tools/arm-elf/bin/../lib/gcc/arm-elf/4.2.2/interwork\libgcc.a(_muldivdf3.o)
 .debug_info    0x0001a2b1       0x79 c:/mcbuilder/resources/tools/arm-elf/bin/../lib/gcc/arm-elf/4.2.2/interwork\libgcc.a(_cmpdf2.o)
 .debug_info    0x0001a32a       0x79 c:/mcbuilder/resources/tools/arm-elf/bin/../lib/gcc/arm-elf/4.2.2/interwork\libgcc.a(_fixdfsi.o)
 .debug_info    0x0001a3a3       0x79 c:/mcbuilder/resources/tools/arm-elf/bin/../lib/gcc/arm-elf/4.2.2/interwork\libgcc.a(_fixunsdfsi.o)
 .debug_info    0x0001a41c       0x79 c:/mcbuilder/resources/tools/arm-elf/bin/../lib/gcc/arm-elf/4.2.2/interwork\libgcc.a(_truncdfsf2.o)

.debug_abbrev   0x00000000     0x5009
 .debug_abbrev  0x00000000       0x14 c:/mcbuilder/resources/tools/arm-elf/bin/../lib/gcc/arm-elf/4.2.2/interwork\libgcc.a(_udivsi3.o)
 .debug_abbrev  0x00000014       0x14 c:/mcbuilder/resources/tools/arm-elf/bin/../lib/gcc/arm-elf/4.2.2/interwork\libgcc.a(_divsi3.o)
 .debug_abbrev  0x00000028       0x14 c:/mcbuilder/resources/tools/arm-elf/bin/../lib/gcc/arm-elf/4.2.2/interwork\libgcc.a(_umodsi3.o)
 .debug_abbrev  0x0000003c       0x14 c:/mcbuilder/resources/tools/arm-elf/bin/../lib/gcc/arm-elf/4.2.2/interwork\libgcc.a(_modsi3.o)
 .debug_abbrev  0x00000050       0x14 c:/mcbuilder/resources/tools/arm-elf/bin/../lib/gcc/arm-elf/4.2.2/interwork\libgcc.a(_dvmd_tls.o)
 .debug_abbrev  0x00000064      0x17f c:/mcbuilder/resources/tools/arm-elf/bin/../lib/gcc/arm-elf/4.2.2/../../../../arm-elf/lib/interwork\libc.a(lib_a-atoi.o)
 .debug_abbrev  0x000001e3       0x5b c:/mcbuilder/resources/tools/arm-elf/bin/../lib/gcc/arm-elf/4.2.2/../../../../arm-elf/lib/interwork\libc.a(lib_a-ctype_.o)
 .debug_abbrev  0x0000023e       0x99 c:/mcbuilder/resources/tools/arm-elf/bin/../lib/gcc/arm-elf/4.2.2/../../../../arm-elf/lib/interwork\libc.a(lib_a-memcpy.o)
 .debug_abbrev  0x000002d7       0xb2 c:/mcbuilder/resources/tools/arm-elf/bin/../lib/gcc/arm-elf/4.2.2/../../../../arm-elf/lib/interwork\libc.a(lib_a-memset.o)
 .debug_abbrev  0x00000389      0x1c3 c:/mcbuilder/resources/tools/arm-elf/bin/../lib/gcc/arm-elf/4.2.2/../../../../arm-elf/lib/interwork\libc.a(lib_a-snprintf.o)
 .debug_abbrev  0x0000054c      0x1c1 c:/mcbuilder/resources/tools/arm-elf/bin/../lib/gcc/arm-elf/4.2.2/../../../../arm-elf/lib/interwork\libc.a(lib_a-sprintf.o)
 .debug_abbrev  0x0000070d      0x1e7 c:/mcbuilder/resources/tools/arm-elf/bin/../lib/gcc/arm-elf/4.2.2/../../../../arm-elf/lib/interwork\libc.a(lib_a-sscanf.o)
 .debug_abbrev  0x000008f4       0x90 c:/mcbuilder/resources/tools/arm-elf/bin/../lib/gcc/arm-elf/4.2.2/../../../../arm-elf/lib/interwork\libc.a(lib_a-strcat.o)
 .debug_abbrev  0x00000984       0xa7 c:/mcbuilder/resources/tools/arm-elf/bin/../lib/gcc/arm-elf/4.2.2/../../../../arm-elf/lib/interwork\libc.a(lib_a-strchr.o)
 .debug_abbrev  0x00000a2b       0x7a c:/mcbuilder/resources/tools/arm-elf/bin/../lib/gcc/arm-elf/4.2.2/../../../../arm-elf/lib/interwork\libc.a(lib_a-strcmp.o)
 .debug_abbrev  0x00000aa5       0x98 c:/mcbuilder/resources/tools/arm-elf/bin/../lib/gcc/arm-elf/4.2.2/../../../../arm-elf/lib/interwork\libc.a(lib_a-strcpy.o)
 .debug_abbrev  0x00000b3d       0x94 c:/mcbuilder/resources/tools/arm-elf/bin/../lib/gcc/arm-elf/4.2.2/../../../../arm-elf/lib/interwork\libc.a(lib_a-strlen.o)
 .debug_abbrev  0x00000bd1       0x87 c:/mcbuilder/resources/tools/arm-elf/bin/../lib/gcc/arm-elf/4.2.2/../../../../arm-elf/lib/interwork\libc.a(lib_a-strncmp.o)
 .debug_abbrev  0x00000c58       0xa5 c:/mcbuilder/resources/tools/arm-elf/bin/../lib/gcc/arm-elf/4.2.2/../../../../arm-elf/lib/interwork\libc.a(lib_a-strncpy.o)
 .debug_abbrev  0x00000cfd      0x1c6 c:/mcbuilder/resources/tools/arm-elf/bin/../lib/gcc/arm-elf/4.2.2/../../../../arm-elf/lib/interwork\libc.a(lib_a-strtol.o)
 .debug_abbrev  0x00000ec3      0x379 c:/mcbuilder/resources/tools/arm-elf/bin/../lib/gcc/arm-elf/4.2.2/../../../../arm-elf/lib/interwork\libc.a(lib_a-vfprintf.o)
 .debug_abbrev  0x0000123c      0x28f c:/mcbuilder/resources/tools/arm-elf/bin/../lib/gcc/arm-elf/4.2.2/../../../../arm-elf/lib/interwork\libc.a(lib_a-vfscanf.o)
 .debug_abbrev  0x000014cb      0x179 c:/mcbuilder/resources/tools/arm-elf/bin/../lib/gcc/arm-elf/4.2.2/../../../../arm-elf/lib/interwork\libc.a(lib_a-wsetup.o)
 .debug_abbrev  0x00001644      0x22c c:/mcbuilder/resources/tools/arm-elf/bin/../lib/gcc/arm-elf/4.2.2/../../../../arm-elf/lib/interwork\libc.a(lib_a-dtoa.o)
 .debug_abbrev  0x00001870      0x1b4 c:/mcbuilder/resources/tools/arm-elf/bin/../lib/gcc/arm-elf/4.2.2/../../../../arm-elf/lib/interwork\libc.a(lib_a-fflush.o)
 .debug_abbrev  0x00001a24      0x25c c:/mcbuilder/resources/tools/arm-elf/bin/../lib/gcc/arm-elf/4.2.2/../../../../arm-elf/lib/interwork\libc.a(lib_a-findfp.o)
 .debug_abbrev  0x00001c80      0x1d0 c:/mcbuilder/resources/tools/arm-elf/bin/../lib/gcc/arm-elf/4.2.2/../../../../arm-elf/lib/interwork\libc.a(lib_a-fread.o)
 .debug_abbrev  0x00001e50      0x200 c:/mcbuilder/resources/tools/arm-elf/bin/../lib/gcc/arm-elf/4.2.2/../../../../arm-elf/lib/interwork\libc.a(lib_a-freer.o)
 .debug_abbrev  0x00002050      0x1ac c:/mcbuilder/resources/tools/arm-elf/bin/../lib/gcc/arm-elf/4.2.2/../../../../arm-elf/lib/interwork\libc.a(lib_a-fvwrite.o)
 .debug_abbrev  0x000021fc      0x1f7 c:/mcbuilder/resources/tools/arm-elf/bin/../lib/gcc/arm-elf/4.2.2/../../../../arm-elf/lib/interwork\libc.a(lib_a-fwalk.o)
 .debug_abbrev  0x000023f3      0x160 c:/mcbuilder/resources/tools/arm-elf/bin/../lib/gcc/arm-elf/4.2.2/../../../../arm-elf/lib/interwork\libc.a(lib_a-impure.o)
 .debug_abbrev  0x00002553       0xa8 c:/mcbuilder/resources/tools/arm-elf/bin/../lib/gcc/arm-elf/4.2.2/../../../../arm-elf/lib/interwork\libc.a(lib_a-iswspace.o)
 .debug_abbrev  0x000025fb      0x1f0 c:/mcbuilder/resources/tools/arm-elf/bin/../lib/gcc/arm-elf/4.2.2/../../../../arm-elf/lib/interwork\libc.a(lib_a-locale.o)
 .debug_abbrev  0x000027eb      0x193 c:/mcbuilder/resources/tools/arm-elf/bin/../lib/gcc/arm-elf/4.2.2/../../../../arm-elf/lib/interwork\libc.a(lib_a-makebuf.o)
 .debug_abbrev  0x0000297e      0x22e c:/mcbuilder/resources/tools/arm-elf/bin/../lib/gcc/arm-elf/4.2.2/../../../../arm-elf/lib/interwork\libc.a(lib_a-mallocr.o)
 .debug_abbrev  0x00002bac      0x188 c:/mcbuilder/resources/tools/arm-elf/bin/../lib/gcc/arm-elf/4.2.2/../../../../arm-elf/lib/interwork\libc.a(lib_a-mbrtowc.o)
 .debug_abbrev  0x00002d34      0x1a2 c:/mcbuilder/resources/tools/arm-elf/bin/../lib/gcc/arm-elf/4.2.2/../../../../arm-elf/lib/interwork\libc.a(lib_a-mbtowc_r.o)
 .debug_abbrev  0x00002ed6       0xbe c:/mcbuilder/resources/tools/arm-elf/bin/../lib/gcc/arm-elf/4.2.2/../../../../arm-elf/lib/interwork\libc.a(lib_a-memchr.o)
 .debug_abbrev  0x00002f94       0xa2 c:/mcbuilder/resources/tools/arm-elf/bin/../lib/gcc/arm-elf/4.2.2/../../../../arm-elf/lib/interwork\libc.a(lib_a-memmove.o)
 .debug_abbrev  0x00003036      0x173 c:/mcbuilder/resources/tools/arm-elf/bin/../lib/gcc/arm-elf/4.2.2/../../../../arm-elf/lib/interwork\libc.a(lib_a-mlock.o)
 .debug_abbrev  0x000031a9      0x2af c:/mcbuilder/resources/tools/arm-elf/bin/../lib/gcc/arm-elf/4.2.2/../../../../arm-elf/lib/interwork\libc.a(lib_a-mprec.o)
 .debug_abbrev  0x00003458      0x1e2 c:/mcbuilder/resources/tools/arm-elf/bin/../lib/gcc/arm-elf/4.2.2/../../../../arm-elf/lib/interwork\libc.a(lib_a-reallocr.o)
 .debug_abbrev  0x0000363a      0x190 c:/mcbuilder/resources/tools/arm-elf/bin/../lib/gcc/arm-elf/4.2.2/../../../../arm-elf/lib/interwork\libc.a(lib_a-refill.o)
 .debug_abbrev  0x000037ca       0xdd c:/mcbuilder/resources/tools/arm-elf/bin/../lib/gcc/arm-elf/4.2.2/../../../../arm-elf/lib/interwork\libc.a(lib_a-s_isinfd.o)
 .debug_abbrev  0x000038a7       0xdd c:/mcbuilder/resources/tools/arm-elf/bin/../lib/gcc/arm-elf/4.2.2/../../../../arm-elf/lib/interwork\libc.a(lib_a-s_isnand.o)
 .debug_abbrev  0x00003984       0x9c c:/mcbuilder/resources/tools/arm-elf/bin/../lib/gcc/arm-elf/4.2.2/../../../../arm-elf/lib/interwork\libc.a(lib_a-sccl.o)
 .debug_abbrev  0x00003a20       0x76 c:/mcbuilder/resources/tools/arm-elf/bin/../lib/gcc/arm-elf/4.2.2/../../../../arm-elf/lib/interwork\libc.a(lib_a-sf_nan.o)
 .debug_abbrev  0x00003a96      0x1aa c:/mcbuilder/resources/tools/arm-elf/bin/../lib/gcc/arm-elf/4.2.2/../../../../arm-elf/lib/interwork\libc.a(lib_a-stdio.o)
 .debug_abbrev  0x00003c40      0x30c c:/mcbuilder/resources/tools/arm-elf/bin/../lib/gcc/arm-elf/4.2.2/../../../../arm-elf/lib/interwork\libc.a(lib_a-strtod.o)
 .debug_abbrev  0x00003f4c      0x1c4 c:/mcbuilder/resources/tools/arm-elf/bin/../lib/gcc/arm-elf/4.2.2/../../../../arm-elf/lib/interwork\libc.a(lib_a-strtoul.o)
 .debug_abbrev  0x00004110      0x415 c:/mcbuilder/resources/tools/arm-elf/bin/../lib/gcc/arm-elf/4.2.2/../../../../arm-elf/lib/interwork\libc.a(lib_a-syscalls.o)
 .debug_abbrev  0x00004525      0x1b0 c:/mcbuilder/resources/tools/arm-elf/bin/../lib/gcc/arm-elf/4.2.2/../../../../arm-elf/lib/interwork\libc.a(lib_a-ungetc.o)
 .debug_abbrev  0x000046d5      0x1c7 c:/mcbuilder/resources/tools/arm-elf/bin/../lib/gcc/arm-elf/4.2.2/../../../../arm-elf/lib/interwork\libc.a(lib_a-callocr.o)
 .debug_abbrev  0x0000489c      0x168 c:/mcbuilder/resources/tools/arm-elf/bin/../lib/gcc/arm-elf/4.2.2/../../../../arm-elf/lib/interwork\libc.a(lib_a-errno.o)
 .debug_abbrev  0x00004a04      0x1b0 c:/mcbuilder/resources/tools/arm-elf/bin/../lib/gcc/arm-elf/4.2.2/../../../../arm-elf/lib/interwork\libc.a(lib_a-fclose.o)
 .debug_abbrev  0x00004bb4      0x2a7 c:/mcbuilder/resources/tools/arm-elf/bin/../lib/gcc/arm-elf/4.2.2/../../../../arm-elf/lib/interwork\libc.a(lib_a-gdtoa-gethex.o)
 .debug_abbrev  0x00004e5b      0x136 c:/mcbuilder/resources/tools/arm-elf/bin/../lib/gcc/arm-elf/4.2.2/../../../../arm-elf/lib/interwork\libc.a(lib_a-gdtoa-hexnan.o)
 .debug_abbrev  0x00004f91       0x14 c:/mcbuilder/resources/tools/arm-elf/bin/../lib/gcc/arm-elf/4.2.2/interwork\libgcc.a(_addsubdf3.o)
 .debug_abbrev  0x00004fa5       0x14 c:/mcbuilder/resources/tools/arm-elf/bin/../lib/gcc/arm-elf/4.2.2/interwork\libgcc.a(_muldivdf3.o)
 .debug_abbrev  0x00004fb9       0x14 c:/mcbuilder/resources/tools/arm-elf/bin/../lib/gcc/arm-elf/4.2.2/interwork\libgcc.a(_cmpdf2.o)
 .debug_abbrev  0x00004fcd       0x14 c:/mcbuilder/resources/tools/arm-elf/bin/../lib/gcc/arm-elf/4.2.2/interwork\libgcc.a(_fixdfsi.o)
 .debug_abbrev  0x00004fe1       0x14 c:/mcbuilder/resources/tools/arm-elf/bin/../lib/gcc/arm-elf/4.2.2/interwork\libgcc.a(_fixunsdfsi.o)
 .debug_abbrev  0x00004ff5       0x14 c:/mcbuilder/resources/tools/arm-elf/bin/../lib/gcc/arm-elf/4.2.2/interwork\libgcc.a(_truncdfsf2.o)

.debug_aranges  0x00000000      0x7a0
 .debug_aranges
                0x00000000       0x20 c:/mcbuilder/resources/tools/arm-elf/bin/../lib/gcc/arm-elf/4.2.2/interwork\libgcc.a(_udivsi3.o)
 .debug_aranges
                0x00000020       0x20 c:/mcbuilder/resources/tools/arm-elf/bin/../lib/gcc/arm-elf/4.2.2/interwork\libgcc.a(_divsi3.o)
 .debug_aranges
                0x00000040       0x20 c:/mcbuilder/resources/tools/arm-elf/bin/../lib/gcc/arm-elf/4.2.2/interwork\libgcc.a(_umodsi3.o)
 .debug_aranges
                0x00000060       0x20 c:/mcbuilder/resources/tools/arm-elf/bin/../lib/gcc/arm-elf/4.2.2/interwork\libgcc.a(_modsi3.o)
 .debug_aranges
                0x00000080       0x20 c:/mcbuilder/resources/tools/arm-elf/bin/../lib/gcc/arm-elf/4.2.2/interwork\libgcc.a(_dvmd_tls.o)
 .debug_aranges
                0x000000a0       0x20 c:/mcbuilder/resources/tools/arm-elf/bin/../lib/gcc/arm-elf/4.2.2/../../../../arm-elf/lib/interwork\libc.a(lib_a-atoi.o)
 .debug_aranges
                0x000000c0       0x20 c:/mcbuilder/resources/tools/arm-elf/bin/../lib/gcc/arm-elf/4.2.2/../../../../arm-elf/lib/interwork\libc.a(lib_a-memcpy.o)
 .debug_aranges
                0x000000e0       0x20 c:/mcbuilder/resources/tools/arm-elf/bin/../lib/gcc/arm-elf/4.2.2/../../../../arm-elf/lib/interwork\libc.a(lib_a-memset.o)
 .debug_aranges
                0x00000100       0x20 c:/mcbuilder/resources/tools/arm-elf/bin/../lib/gcc/arm-elf/4.2.2/../../../../arm-elf/lib/interwork\libc.a(lib_a-snprintf.o)
 .debug_aranges
                0x00000120       0x20 c:/mcbuilder/resources/tools/arm-elf/bin/../lib/gcc/arm-elf/4.2.2/../../../../arm-elf/lib/interwork\libc.a(lib_a-sprintf.o)
 .debug_aranges
                0x00000140       0x20 c:/mcbuilder/resources/tools/arm-elf/bin/../lib/gcc/arm-elf/4.2.2/../../../../arm-elf/lib/interwork\libc.a(lib_a-sscanf.o)
 .debug_aranges
                0x00000160       0x20 c:/mcbuilder/resources/tools/arm-elf/bin/../lib/gcc/arm-elf/4.2.2/../../../../arm-elf/lib/interwork\libc.a(lib_a-strcat.o)
 .debug_aranges
                0x00000180       0x20 c:/mcbuilder/resources/tools/arm-elf/bin/../lib/gcc/arm-elf/4.2.2/../../../../arm-elf/lib/interwork\libc.a(lib_a-strchr.o)
 .debug_aranges
                0x000001a0       0x20 c:/mcbuilder/resources/tools/arm-elf/bin/../lib/gcc/arm-elf/4.2.2/../../../../arm-elf/lib/interwork\libc.a(lib_a-strcmp.o)
 .debug_aranges
                0x000001c0       0x20 c:/mcbuilder/resources/tools/arm-elf/bin/../lib/gcc/arm-elf/4.2.2/../../../../arm-elf/lib/interwork\libc.a(lib_a-strcpy.o)
 .debug_aranges
                0x000001e0       0x20 c:/mcbuilder/resources/tools/arm-elf/bin/../lib/gcc/arm-elf/4.2.2/../../../../arm-elf/lib/interwork\libc.a(lib_a-strlen.o)
 .debug_aranges
                0x00000200       0x20 c:/mcbuilder/resources/tools/arm-elf/bin/../lib/gcc/arm-elf/4.2.2/../../../../arm-elf/lib/interwork\libc.a(lib_a-strncmp.o)
 .debug_aranges
                0x00000220       0x20 c:/mcbuilder/resources/tools/arm-elf/bin/../lib/gcc/arm-elf/4.2.2/../../../../arm-elf/lib/interwork\libc.a(lib_a-strncpy.o)
 .debug_aranges
                0x00000240       0x20 c:/mcbuilder/resources/tools/arm-elf/bin/../lib/gcc/arm-elf/4.2.2/../../../../arm-elf/lib/interwork\libc.a(lib_a-strtol.o)
 .debug_aranges
                0x00000260       0x20 c:/mcbuilder/resources/tools/arm-elf/bin/../lib/gcc/arm-elf/4.2.2/../../../../arm-elf/lib/interwork\libc.a(lib_a-vfprintf.o)
 .debug_aranges
                0x00000280       0x20 c:/mcbuilder/resources/tools/arm-elf/bin/../lib/gcc/arm-elf/4.2.2/../../../../arm-elf/lib/interwork\libc.a(lib_a-vfscanf.o)
 .debug_aranges
                0x000002a0       0x20 c:/mcbuilder/resources/tools/arm-elf/bin/../lib/gcc/arm-elf/4.2.2/../../../../arm-elf/lib/interwork\libc.a(lib_a-wsetup.o)
 .debug_aranges
                0x000002c0       0x20 c:/mcbuilder/resources/tools/arm-elf/bin/../lib/gcc/arm-elf/4.2.2/../../../../arm-elf/lib/interwork\libc.a(lib_a-dtoa.o)
 .debug_aranges
                0x000002e0       0x20 c:/mcbuilder/resources/tools/arm-elf/bin/../lib/gcc/arm-elf/4.2.2/../../../../arm-elf/lib/interwork\libc.a(lib_a-fflush.o)
 .debug_aranges
                0x00000300       0x20 c:/mcbuilder/resources/tools/arm-elf/bin/../lib/gcc/arm-elf/4.2.2/../../../../arm-elf/lib/interwork\libc.a(lib_a-findfp.o)
 .debug_aranges
                0x00000320       0x20 c:/mcbuilder/resources/tools/arm-elf/bin/../lib/gcc/arm-elf/4.2.2/../../../../arm-elf/lib/interwork\libc.a(lib_a-fread.o)
 .debug_aranges
                0x00000340       0x20 c:/mcbuilder/resources/tools/arm-elf/bin/../lib/gcc/arm-elf/4.2.2/../../../../arm-elf/lib/interwork\libc.a(lib_a-freer.o)
 .debug_aranges
                0x00000360       0x20 c:/mcbuilder/resources/tools/arm-elf/bin/../lib/gcc/arm-elf/4.2.2/../../../../arm-elf/lib/interwork\libc.a(lib_a-fvwrite.o)
 .debug_aranges
                0x00000380       0x20 c:/mcbuilder/resources/tools/arm-elf/bin/../lib/gcc/arm-elf/4.2.2/../../../../arm-elf/lib/interwork\libc.a(lib_a-fwalk.o)
 .debug_aranges
                0x000003a0       0x20 c:/mcbuilder/resources/tools/arm-elf/bin/../lib/gcc/arm-elf/4.2.2/../../../../arm-elf/lib/interwork\libc.a(lib_a-iswspace.o)
 .debug_aranges
                0x000003c0       0x20 c:/mcbuilder/resources/tools/arm-elf/bin/../lib/gcc/arm-elf/4.2.2/../../../../arm-elf/lib/interwork\libc.a(lib_a-locale.o)
 .debug_aranges
                0x000003e0       0x20 c:/mcbuilder/resources/tools/arm-elf/bin/../lib/gcc/arm-elf/4.2.2/../../../../arm-elf/lib/interwork\libc.a(lib_a-makebuf.o)
 .debug_aranges
                0x00000400       0x20 c:/mcbuilder/resources/tools/arm-elf/bin/../lib/gcc/arm-elf/4.2.2/../../../../arm-elf/lib/interwork\libc.a(lib_a-mallocr.o)
 .debug_aranges
                0x00000420       0x20 c:/mcbuilder/resources/tools/arm-elf/bin/../lib/gcc/arm-elf/4.2.2/../../../../arm-elf/lib/interwork\libc.a(lib_a-mbrtowc.o)
 .debug_aranges
                0x00000440       0x20 c:/mcbuilder/resources/tools/arm-elf/bin/../lib/gcc/arm-elf/4.2.2/../../../../arm-elf/lib/interwork\libc.a(lib_a-mbtowc_r.o)
 .debug_aranges
                0x00000460       0x20 c:/mcbuilder/resources/tools/arm-elf/bin/../lib/gcc/arm-elf/4.2.2/../../../../arm-elf/lib/interwork\libc.a(lib_a-memchr.o)
 .debug_aranges
                0x00000480       0x20 c:/mcbuilder/resources/tools/arm-elf/bin/../lib/gcc/arm-elf/4.2.2/../../../../arm-elf/lib/interwork\libc.a(lib_a-memmove.o)
 .debug_aranges
                0x000004a0       0x20 c:/mcbuilder/resources/tools/arm-elf/bin/../lib/gcc/arm-elf/4.2.2/../../../../arm-elf/lib/interwork\libc.a(lib_a-mlock.o)
 .debug_aranges
                0x000004c0       0x20 c:/mcbuilder/resources/tools/arm-elf/bin/../lib/gcc/arm-elf/4.2.2/../../../../arm-elf/lib/interwork\libc.a(lib_a-mprec.o)
 .debug_aranges
                0x000004e0       0x20 c:/mcbuilder/resources/tools/arm-elf/bin/../lib/gcc/arm-elf/4.2.2/../../../../arm-elf/lib/interwork\libc.a(lib_a-reallocr.o)
 .debug_aranges
                0x00000500       0x20 c:/mcbuilder/resources/tools/arm-elf/bin/../lib/gcc/arm-elf/4.2.2/../../../../arm-elf/lib/interwork\libc.a(lib_a-refill.o)
 .debug_aranges
                0x00000520       0x20 c:/mcbuilder/resources/tools/arm-elf/bin/../lib/gcc/arm-elf/4.2.2/../../../../arm-elf/lib/interwork\libc.a(lib_a-s_isinfd.o)
 .debug_aranges
                0x00000540       0x20 c:/mcbuilder/resources/tools/arm-elf/bin/../lib/gcc/arm-elf/4.2.2/../../../../arm-elf/lib/interwork\libc.a(lib_a-s_isnand.o)
 .debug_aranges
                0x00000560       0x20 c:/mcbuilder/resources/tools/arm-elf/bin/../lib/gcc/arm-elf/4.2.2/../../../../arm-elf/lib/interwork\libc.a(lib_a-sccl.o)
 .debug_aranges
                0x00000580       0x20 c:/mcbuilder/resources/tools/arm-elf/bin/../lib/gcc/arm-elf/4.2.2/../../../../arm-elf/lib/interwork\libc.a(lib_a-sf_nan.o)
 .debug_aranges
                0x000005a0       0x20 c:/mcbuilder/resources/tools/arm-elf/bin/../lib/gcc/arm-elf/4.2.2/../../../../arm-elf/lib/interwork\libc.a(lib_a-stdio.o)
 .debug_aranges
                0x000005c0       0x20 c:/mcbuilder/resources/tools/arm-elf/bin/../lib/gcc/arm-elf/4.2.2/../../../../arm-elf/lib/interwork\libc.a(lib_a-strtod.o)
 .debug_aranges
                0x000005e0       0x20 c:/mcbuilder/resources/tools/arm-elf/bin/../lib/gcc/arm-elf/4.2.2/../../../../arm-elf/lib/interwork\libc.a(lib_a-strtoul.o)
 .debug_aranges
                0x00000600       0x20 c:/mcbuilder/resources/tools/arm-elf/bin/../lib/gcc/arm-elf/4.2.2/../../../../arm-elf/lib/interwork\libc.a(lib_a-syscalls.o)
 .debug_aranges
                0x00000620       0x20 c:/mcbuilder/resources/tools/arm-elf/bin/../lib/gcc/arm-elf/4.2.2/../../../../arm-elf/lib/interwork\libc.a(lib_a-ungetc.o)
 .debug_aranges
                0x00000640       0x20 c:/mcbuilder/resources/tools/arm-elf/bin/../lib/gcc/arm-elf/4.2.2/../../../../arm-elf/lib/interwork\libc.a(lib_a-callocr.o)
 .debug_aranges
                0x00000660       0x20 c:/mcbuilder/resources/tools/arm-elf/bin/../lib/gcc/arm-elf/4.2.2/../../../../arm-elf/lib/interwork\libc.a(lib_a-errno.o)
 .debug_aranges
                0x00000680       0x20 c:/mcbuilder/resources/tools/arm-elf/bin/../lib/gcc/arm-elf/4.2.2/../../../../arm-elf/lib/interwork\libc.a(lib_a-fclose.o)
 .debug_aranges
                0x000006a0       0x20 c:/mcbuilder/resources/tools/arm-elf/bin/../lib/gcc/arm-elf/4.2.2/../../../../arm-elf/lib/interwork\libc.a(lib_a-gdtoa-gethex.o)
 .debug_aranges
                0x000006c0       0x20 c:/mcbuilder/resources/tools/arm-elf/bin/../lib/gcc/arm-elf/4.2.2/../../../../arm-elf/lib/interwork\libc.a(lib_a-gdtoa-hexnan.o)
 .debug_aranges
                0x000006e0       0x20 c:/mcbuilder/resources/tools/arm-elf/bin/../lib/gcc/arm-elf/4.2.2/interwork\libgcc.a(_addsubdf3.o)
 .debug_aranges
                0x00000700       0x20 c:/mcbuilder/resources/tools/arm-elf/bin/../lib/gcc/arm-elf/4.2.2/interwork\libgcc.a(_muldivdf3.o)
 .debug_aranges
                0x00000720       0x20 c:/mcbuilder/resources/tools/arm-elf/bin/../lib/gcc/arm-elf/4.2.2/interwork\libgcc.a(_cmpdf2.o)
 .debug_aranges
                0x00000740       0x20 c:/mcbuilder/resources/tools/arm-elf/bin/../lib/gcc/arm-elf/4.2.2/interwork\libgcc.a(_fixdfsi.o)
 .debug_aranges
                0x00000760       0x20 c:/mcbuilder/resources/tools/arm-elf/bin/../lib/gcc/arm-elf/4.2.2/interwork\libgcc.a(_fixunsdfsi.o)
 .debug_aranges
                0x00000780       0x20 c:/mcbuilder/resources/tools/arm-elf/bin/../lib/gcc/arm-elf/4.2.2/interwork\libgcc.a(_truncdfsf2.o)

.debug_loc      0x00000000     0xa8a1
 .debug_loc     0x00000000       0x77 c:/mcbuilder/resources/tools/arm-elf/bin/../lib/gcc/arm-elf/4.2.2/../../../../arm-elf/lib/interwork\libc.a(lib_a-atoi.o)
 .debug_loc     0x00000077      0x104 c:/mcbuilder/resources/tools/arm-elf/bin/../lib/gcc/arm-elf/4.2.2/../../../../arm-elf/lib/interwork\libc.a(lib_a-memcpy.o)
 .debug_loc     0x0000017b       0xa9 c:/mcbuilder/resources/tools/arm-elf/bin/../lib/gcc/arm-elf/4.2.2/../../../../arm-elf/lib/interwork\libc.a(lib_a-memset.o)
 .debug_loc     0x00000224      0x180 c:/mcbuilder/resources/tools/arm-elf/bin/../lib/gcc/arm-elf/4.2.2/../../../../arm-elf/lib/interwork\libc.a(lib_a-snprintf.o)
 .debug_loc     0x000003a4       0xfd c:/mcbuilder/resources/tools/arm-elf/bin/../lib/gcc/arm-elf/4.2.2/../../../../arm-elf/lib/interwork\libc.a(lib_a-sprintf.o)
 .debug_loc     0x000004a1      0x105 c:/mcbuilder/resources/tools/arm-elf/bin/../lib/gcc/arm-elf/4.2.2/../../../../arm-elf/lib/interwork\libc.a(lib_a-sscanf.o)
 .debug_loc     0x000005a6       0x79 c:/mcbuilder/resources/tools/arm-elf/bin/../lib/gcc/arm-elf/4.2.2/../../../../arm-elf/lib/interwork\libc.a(lib_a-strcat.o)
 .debug_loc     0x0000061f       0xcb c:/mcbuilder/resources/tools/arm-elf/bin/../lib/gcc/arm-elf/4.2.2/../../../../arm-elf/lib/interwork\libc.a(lib_a-strchr.o)
 .debug_loc     0x000006ea       0x99 c:/mcbuilder/resources/tools/arm-elf/bin/../lib/gcc/arm-elf/4.2.2/../../../../arm-elf/lib/interwork\libc.a(lib_a-strcmp.o)
 .debug_loc     0x00000783       0x3d c:/mcbuilder/resources/tools/arm-elf/bin/../lib/gcc/arm-elf/4.2.2/../../../../arm-elf/lib/interwork\libc.a(lib_a-strcpy.o)
 .debug_loc     0x000007c0       0x26 c:/mcbuilder/resources/tools/arm-elf/bin/../lib/gcc/arm-elf/4.2.2/../../../../arm-elf/lib/interwork\libc.a(lib_a-strlen.o)
 .debug_loc     0x000007e6      0x102 c:/mcbuilder/resources/tools/arm-elf/bin/../lib/gcc/arm-elf/4.2.2/../../../../arm-elf/lib/interwork\libc.a(lib_a-strncmp.o)
 .debug_loc     0x000008e8       0xf4 c:/mcbuilder/resources/tools/arm-elf/bin/../lib/gcc/arm-elf/4.2.2/../../../../arm-elf/lib/interwork\libc.a(lib_a-strncpy.o)
 .debug_loc     0x000009dc      0x242 c:/mcbuilder/resources/tools/arm-elf/bin/../lib/gcc/arm-elf/4.2.2/../../../../arm-elf/lib/interwork\libc.a(lib_a-strtol.o)
 .debug_loc     0x00000c1e     0x1457 c:/mcbuilder/resources/tools/arm-elf/bin/../lib/gcc/arm-elf/4.2.2/../../../../arm-elf/lib/interwork\libc.a(lib_a-vfprintf.o)
 .debug_loc     0x00002075      0xea7 c:/mcbuilder/resources/tools/arm-elf/bin/../lib/gcc/arm-elf/4.2.2/../../../../arm-elf/lib/interwork\libc.a(lib_a-vfscanf.o)
 .debug_loc     0x00002f1c       0x5b c:/mcbuilder/resources/tools/arm-elf/bin/../lib/gcc/arm-elf/4.2.2/../../../../arm-elf/lib/interwork\libc.a(lib_a-wsetup.o)
 .debug_loc     0x00002f77     0x145b c:/mcbuilder/resources/tools/arm-elf/bin/../lib/gcc/arm-elf/4.2.2/../../../../arm-elf/lib/interwork\libc.a(lib_a-dtoa.o)
 .debug_loc     0x000043d2      0x191 c:/mcbuilder/resources/tools/arm-elf/bin/../lib/gcc/arm-elf/4.2.2/../../../../arm-elf/lib/interwork\libc.a(lib_a-fflush.o)
 .debug_loc     0x00004563      0x21f c:/mcbuilder/resources/tools/arm-elf/bin/../lib/gcc/arm-elf/4.2.2/../../../../arm-elf/lib/interwork\libc.a(lib_a-findfp.o)
 .debug_loc     0x00004782      0x2d2 c:/mcbuilder/resources/tools/arm-elf/bin/../lib/gcc/arm-elf/4.2.2/../../../../arm-elf/lib/interwork\libc.a(lib_a-fread.o)
 .debug_loc     0x00004a54      0x2c1 c:/mcbuilder/resources/tools/arm-elf/bin/../lib/gcc/arm-elf/4.2.2/../../../../arm-elf/lib/interwork\libc.a(lib_a-freer.o)
 .debug_loc     0x00004d15      0x33b c:/mcbuilder/resources/tools/arm-elf/bin/../lib/gcc/arm-elf/4.2.2/../../../../arm-elf/lib/interwork\libc.a(lib_a-fvwrite.o)
 .debug_loc     0x00005050      0x129 c:/mcbuilder/resources/tools/arm-elf/bin/../lib/gcc/arm-elf/4.2.2/../../../../arm-elf/lib/interwork\libc.a(lib_a-fwalk.o)
 .debug_loc     0x00005179       0x13 c:/mcbuilder/resources/tools/arm-elf/bin/../lib/gcc/arm-elf/4.2.2/../../../../arm-elf/lib/interwork\libc.a(lib_a-iswspace.o)
 .debug_loc     0x0000518c       0xc8 c:/mcbuilder/resources/tools/arm-elf/bin/../lib/gcc/arm-elf/4.2.2/../../../../arm-elf/lib/interwork\libc.a(lib_a-locale.o)
 .debug_loc     0x00005254       0xcd c:/mcbuilder/resources/tools/arm-elf/bin/../lib/gcc/arm-elf/4.2.2/../../../../arm-elf/lib/interwork\libc.a(lib_a-makebuf.o)
 .debug_loc     0x00005321      0x740 c:/mcbuilder/resources/tools/arm-elf/bin/../lib/gcc/arm-elf/4.2.2/../../../../arm-elf/lib/interwork\libc.a(lib_a-mallocr.o)
 .debug_loc     0x00005a61      0x178 c:/mcbuilder/resources/tools/arm-elf/bin/../lib/gcc/arm-elf/4.2.2/../../../../arm-elf/lib/interwork\libc.a(lib_a-mbrtowc.o)
 .debug_loc     0x00005bd9       0x84 c:/mcbuilder/resources/tools/arm-elf/bin/../lib/gcc/arm-elf/4.2.2/../../../../arm-elf/lib/interwork\libc.a(lib_a-mbtowc_r.o)
 .debug_loc     0x00005c5d      0x133 c:/mcbuilder/resources/tools/arm-elf/bin/../lib/gcc/arm-elf/4.2.2/../../../../arm-elf/lib/interwork\libc.a(lib_a-memchr.o)
 .debug_loc     0x00005d90      0x167 c:/mcbuilder/resources/tools/arm-elf/bin/../lib/gcc/arm-elf/4.2.2/../../../../arm-elf/lib/interwork\libc.a(lib_a-memmove.o)
 .debug_loc     0x00005ef7      0xf4e c:/mcbuilder/resources/tools/arm-elf/bin/../lib/gcc/arm-elf/4.2.2/../../../../arm-elf/lib/interwork\libc.a(lib_a-mprec.o)
 .debug_loc     0x00006e45      0x8d4 c:/mcbuilder/resources/tools/arm-elf/bin/../lib/gcc/arm-elf/4.2.2/../../../../arm-elf/lib/interwork\libc.a(lib_a-reallocr.o)
 .debug_loc     0x00007719       0x8d c:/mcbuilder/resources/tools/arm-elf/bin/../lib/gcc/arm-elf/4.2.2/../../../../arm-elf/lib/interwork\libc.a(lib_a-refill.o)
 .debug_loc     0x000077a6       0x4f c:/mcbuilder/resources/tools/arm-elf/bin/../lib/gcc/arm-elf/4.2.2/../../../../arm-elf/lib/interwork\libc.a(lib_a-s_isinfd.o)
 .debug_loc     0x000077f5       0x62 c:/mcbuilder/resources/tools/arm-elf/bin/../lib/gcc/arm-elf/4.2.2/../../../../arm-elf/lib/interwork\libc.a(lib_a-s_isnand.o)
 .debug_loc     0x00007857       0xce c:/mcbuilder/resources/tools/arm-elf/bin/../lib/gcc/arm-elf/4.2.2/../../../../arm-elf/lib/interwork\libc.a(lib_a-sccl.o)
 .debug_loc     0x00007925       0x13 c:/mcbuilder/resources/tools/arm-elf/bin/../lib/gcc/arm-elf/4.2.2/../../../../arm-elf/lib/interwork\libc.a(lib_a-sf_nan.o)
 .debug_loc     0x00007938      0x1ee c:/mcbuilder/resources/tools/arm-elf/bin/../lib/gcc/arm-elf/4.2.2/../../../../arm-elf/lib/interwork\libc.a(lib_a-stdio.o)
 .debug_loc     0x00007b26     0x1424 c:/mcbuilder/resources/tools/arm-elf/bin/../lib/gcc/arm-elf/4.2.2/../../../../arm-elf/lib/interwork\libc.a(lib_a-strtod.o)
 .debug_loc     0x00008f4a      0x21b c:/mcbuilder/resources/tools/arm-elf/bin/../lib/gcc/arm-elf/4.2.2/../../../../arm-elf/lib/interwork\libc.a(lib_a-strtoul.o)
 .debug_loc     0x00009165      0x9b6 c:/mcbuilder/resources/tools/arm-elf/bin/../lib/gcc/arm-elf/4.2.2/../../../../arm-elf/lib/interwork\libc.a(lib_a-syscalls.o)
 .debug_loc     0x00009b1b      0x18e c:/mcbuilder/resources/tools/arm-elf/bin/../lib/gcc/arm-elf/4.2.2/../../../../arm-elf/lib/interwork\libc.a(lib_a-ungetc.o)
 .debug_loc     0x00009ca9       0xd6 c:/mcbuilder/resources/tools/arm-elf/bin/../lib/gcc/arm-elf/4.2.2/../../../../arm-elf/lib/interwork\libc.a(lib_a-callocr.o)
 .debug_loc     0x00009d7f       0xa2 c:/mcbuilder/resources/tools/arm-elf/bin/../lib/gcc/arm-elf/4.2.2/../../../../arm-elf/lib/interwork\libc.a(lib_a-fclose.o)
 .debug_loc     0x00009e21      0x810 c:/mcbuilder/resources/tools/arm-elf/bin/../lib/gcc/arm-elf/4.2.2/../../../../arm-elf/lib/interwork\libc.a(lib_a-gdtoa-gethex.o)
 .debug_loc     0x0000a631      0x270 c:/mcbuilder/resources/tools/arm-elf/bin/../lib/gcc/arm-elf/4.2.2/../../../../arm-elf/lib/interwork\libc.a(lib_a-gdtoa-hexnan.o)

.debug_pubnames
                0x00000000      0xc38
 .debug_pubnames
                0x00000000       0x27 c:/mcbuilder/resources/tools/arm-elf/bin/../lib/gcc/arm-elf/4.2.2/../../../../arm-elf/lib/interwork\libc.a(lib_a-atoi.o)
 .debug_pubnames
                0x00000027       0x2e c:/mcbuilder/resources/tools/arm-elf/bin/../lib/gcc/arm-elf/4.2.2/../../../../arm-elf/lib/interwork\libc.a(lib_a-ctype_.o)
 .debug_pubnames
                0x00000055       0x1d c:/mcbuilder/resources/tools/arm-elf/bin/../lib/gcc/arm-elf/4.2.2/../../../../arm-elf/lib/interwork\libc.a(lib_a-memcpy.o)
 .debug_pubnames
                0x00000072       0x1d c:/mcbuilder/resources/tools/arm-elf/bin/../lib/gcc/arm-elf/4.2.2/../../../../arm-elf/lib/interwork\libc.a(lib_a-memset.o)
 .debug_pubnames
                0x0000008f       0x2f c:/mcbuilder/resources/tools/arm-elf/bin/../lib/gcc/arm-elf/4.2.2/../../../../arm-elf/lib/interwork\libc.a(lib_a-snprintf.o)
 .debug_pubnames
                0x000000be       0x2d c:/mcbuilder/resources/tools/arm-elf/bin/../lib/gcc/arm-elf/4.2.2/../../../../arm-elf/lib/interwork\libc.a(lib_a-sprintf.o)
 .debug_pubnames
                0x000000eb       0x2b c:/mcbuilder/resources/tools/arm-elf/bin/../lib/gcc/arm-elf/4.2.2/../../../../arm-elf/lib/interwork\libc.a(lib_a-sscanf.o)
 .debug_pubnames
                0x00000116       0x1d c:/mcbuilder/resources/tools/arm-elf/bin/../lib/gcc/arm-elf/4.2.2/../../../../arm-elf/lib/interwork\libc.a(lib_a-strcat.o)
 .debug_pubnames
                0x00000133       0x1d c:/mcbuilder/resources/tools/arm-elf/bin/../lib/gcc/arm-elf/4.2.2/../../../../arm-elf/lib/interwork\libc.a(lib_a-strchr.o)
 .debug_pubnames
                0x00000150       0x1d c:/mcbuilder/resources/tools/arm-elf/bin/../lib/gcc/arm-elf/4.2.2/../../../../arm-elf/lib/interwork\libc.a(lib_a-strcmp.o)
 .debug_pubnames
                0x0000016d       0x1d c:/mcbuilder/resources/tools/arm-elf/bin/../lib/gcc/arm-elf/4.2.2/../../../../arm-elf/lib/interwork\libc.a(lib_a-strcpy.o)
 .debug_pubnames
                0x0000018a       0x1d c:/mcbuilder/resources/tools/arm-elf/bin/../lib/gcc/arm-elf/4.2.2/../../../../arm-elf/lib/interwork\libc.a(lib_a-strlen.o)
 .debug_pubnames
                0x000001a7       0x1e c:/mcbuilder/resources/tools/arm-elf/bin/../lib/gcc/arm-elf/4.2.2/../../../../arm-elf/lib/interwork\libc.a(lib_a-strncmp.o)
 .debug_pubnames
                0x000001c5       0x1e c:/mcbuilder/resources/tools/arm-elf/bin/../lib/gcc/arm-elf/4.2.2/../../../../arm-elf/lib/interwork\libc.a(lib_a-strncpy.o)
 .debug_pubnames
                0x000001e3       0x2b c:/mcbuilder/resources/tools/arm-elf/bin/../lib/gcc/arm-elf/4.2.2/../../../../arm-elf/lib/interwork\libc.a(lib_a-strtol.o)
 .debug_pubnames
                0x0000020e       0x2f c:/mcbuilder/resources/tools/arm-elf/bin/../lib/gcc/arm-elf/4.2.2/../../../../arm-elf/lib/interwork\libc.a(lib_a-vfprintf.o)
 .debug_pubnames
                0x0000023d       0x4d c:/mcbuilder/resources/tools/arm-elf/bin/../lib/gcc/arm-elf/4.2.2/../../../../arm-elf/lib/interwork\libc.a(lib_a-vfscanf.o)
 .debug_pubnames
                0x0000028a       0x22 c:/mcbuilder/resources/tools/arm-elf/bin/../lib/gcc/arm-elf/4.2.2/../../../../arm-elf/lib/interwork\libc.a(lib_a-wsetup.o)
 .debug_pubnames
                0x000002ac       0x1e c:/mcbuilder/resources/tools/arm-elf/bin/../lib/gcc/arm-elf/4.2.2/../../../../arm-elf/lib/interwork\libc.a(lib_a-dtoa.o)
 .debug_pubnames
                0x000002ca       0x2b c:/mcbuilder/resources/tools/arm-elf/bin/../lib/gcc/arm-elf/4.2.2/../../../../arm-elf/lib/interwork\libc.a(lib_a-fflush.o)
 .debug_pubnames
                0x000002f5       0xdb c:/mcbuilder/resources/tools/arm-elf/bin/../lib/gcc/arm-elf/4.2.2/../../../../arm-elf/lib/interwork\libc.a(lib_a-findfp.o)
 .debug_pubnames
                0x000003d0       0x29 c:/mcbuilder/resources/tools/arm-elf/bin/../lib/gcc/arm-elf/4.2.2/../../../../arm-elf/lib/interwork\libc.a(lib_a-fread.o)
 .debug_pubnames
                0x000003f9       0x31 c:/mcbuilder/resources/tools/arm-elf/bin/../lib/gcc/arm-elf/4.2.2/../../../../arm-elf/lib/interwork\libc.a(lib_a-freer.o)
 .debug_pubnames
                0x0000042a       0x23 c:/mcbuilder/resources/tools/arm-elf/bin/../lib/gcc/arm-elf/4.2.2/../../../../arm-elf/lib/interwork\libc.a(lib_a-fvwrite.o)
 .debug_pubnames
                0x0000044d       0x2e c:/mcbuilder/resources/tools/arm-elf/bin/../lib/gcc/arm-elf/4.2.2/../../../../arm-elf/lib/interwork\libc.a(lib_a-fwalk.o)
 .debug_pubnames
                0x0000047b       0x39 c:/mcbuilder/resources/tools/arm-elf/bin/../lib/gcc/arm-elf/4.2.2/../../../../arm-elf/lib/interwork\libc.a(lib_a-impure.o)
 .debug_pubnames
                0x000004b4       0x1f c:/mcbuilder/resources/tools/arm-elf/bin/../lib/gcc/arm-elf/4.2.2/../../../../arm-elf/lib/interwork\libc.a(lib_a-iswspace.o)
 .debug_pubnames
                0x000004d3       0xc3 c:/mcbuilder/resources/tools/arm-elf/bin/../lib/gcc/arm-elf/4.2.2/../../../../arm-elf/lib/interwork\libc.a(lib_a-locale.o)
 .debug_pubnames
                0x00000596       0x23 c:/mcbuilder/resources/tools/arm-elf/bin/../lib/gcc/arm-elf/4.2.2/../../../../arm-elf/lib/interwork\libc.a(lib_a-makebuf.o)
 .debug_pubnames
                0x000005b9       0xce c:/mcbuilder/resources/tools/arm-elf/bin/../lib/gcc/arm-elf/4.2.2/../../../../arm-elf/lib/interwork\libc.a(lib_a-mallocr.o)
 .debug_pubnames
                0x00000687       0x2d c:/mcbuilder/resources/tools/arm-elf/bin/../lib/gcc/arm-elf/4.2.2/../../../../arm-elf/lib/interwork\libc.a(lib_a-mbrtowc.o)
 .debug_pubnames
                0x000006b4       0x20 c:/mcbuilder/resources/tools/arm-elf/bin/../lib/gcc/arm-elf/4.2.2/../../../../arm-elf/lib/interwork\libc.a(lib_a-mbtowc_r.o)
 .debug_pubnames
                0x000006d4       0x1d c:/mcbuilder/resources/tools/arm-elf/bin/../lib/gcc/arm-elf/4.2.2/../../../../arm-elf/lib/interwork\libc.a(lib_a-memchr.o)
 .debug_pubnames
                0x000006f1       0x1e c:/mcbuilder/resources/tools/arm-elf/bin/../lib/gcc/arm-elf/4.2.2/../../../../arm-elf/lib/interwork\libc.a(lib_a-memmove.o)
 .debug_pubnames
                0x0000070f       0x38 c:/mcbuilder/resources/tools/arm-elf/bin/../lib/gcc/arm-elf/4.2.2/../../../../arm-elf/lib/interwork\libc.a(lib_a-mlock.o)
 .debug_pubnames
                0x00000747      0x13a c:/mcbuilder/resources/tools/arm-elf/bin/../lib/gcc/arm-elf/4.2.2/../../../../arm-elf/lib/interwork\libc.a(lib_a-mprec.o)
 .debug_pubnames
                0x00000881       0x21 c:/mcbuilder/resources/tools/arm-elf/bin/../lib/gcc/arm-elf/4.2.2/../../../../arm-elf/lib/interwork\libc.a(lib_a-reallocr.o)
 .debug_pubnames
                0x000008a2       0x22 c:/mcbuilder/resources/tools/arm-elf/bin/../lib/gcc/arm-elf/4.2.2/../../../../arm-elf/lib/interwork\libc.a(lib_a-refill.o)
 .debug_pubnames
                0x000008c4       0x1f c:/mcbuilder/resources/tools/arm-elf/bin/../lib/gcc/arm-elf/4.2.2/../../../../arm-elf/lib/interwork\libc.a(lib_a-s_isinfd.o)
 .debug_pubnames
                0x000008e3       0x1f c:/mcbuilder/resources/tools/arm-elf/bin/../lib/gcc/arm-elf/4.2.2/../../../../arm-elf/lib/interwork\libc.a(lib_a-s_isnand.o)
 .debug_pubnames
                0x00000902       0x1d c:/mcbuilder/resources/tools/arm-elf/bin/../lib/gcc/arm-elf/4.2.2/../../../../arm-elf/lib/interwork\libc.a(lib_a-sccl.o)
 .debug_pubnames
                0x0000091f       0x1b c:/mcbuilder/resources/tools/arm-elf/bin/../lib/gcc/arm-elf/4.2.2/../../../../arm-elf/lib/interwork\libc.a(lib_a-sf_nan.o)
 .debug_pubnames
                0x0000093a       0x44 c:/mcbuilder/resources/tools/arm-elf/bin/../lib/gcc/arm-elf/4.2.2/../../../../arm-elf/lib/interwork\libc.a(lib_a-stdio.o)
 .debug_pubnames
                0x0000097e       0x36 c:/mcbuilder/resources/tools/arm-elf/bin/../lib/gcc/arm-elf/4.2.2/../../../../arm-elf/lib/interwork\libc.a(lib_a-strtod.o)
 .debug_pubnames
                0x000009b4       0x2d c:/mcbuilder/resources/tools/arm-elf/bin/../lib/gcc/arm-elf/4.2.2/../../../../arm-elf/lib/interwork\libc.a(lib_a-strtoul.o)
 .debug_pubnames
                0x000009e1      0x158 c:/mcbuilder/resources/tools/arm-elf/bin/../lib/gcc/arm-elf/4.2.2/../../../../arm-elf/lib/interwork\libc.a(lib_a-syscalls.o)
 .debug_pubnames
                0x00000b39       0x39 c:/mcbuilder/resources/tools/arm-elf/bin/../lib/gcc/arm-elf/4.2.2/../../../../arm-elf/lib/interwork\libc.a(lib_a-ungetc.o)
 .debug_pubnames
                0x00000b72       0x20 c:/mcbuilder/resources/tools/arm-elf/bin/../lib/gcc/arm-elf/4.2.2/../../../../arm-elf/lib/interwork\libc.a(lib_a-callocr.o)
 .debug_pubnames
                0x00000b92       0x1e c:/mcbuilder/resources/tools/arm-elf/bin/../lib/gcc/arm-elf/4.2.2/../../../../arm-elf/lib/interwork\libc.a(lib_a-errno.o)
 .debug_pubnames
                0x00000bb0       0x2b c:/mcbuilder/resources/tools/arm-elf/bin/../lib/gcc/arm-elf/4.2.2/../../../../arm-elf/lib/interwork\libc.a(lib_a-fclose.o)
 .debug_pubnames
                0x00000bdb       0x3e c:/mcbuilder/resources/tools/arm-elf/bin/../lib/gcc/arm-elf/4.2.2/../../../../arm-elf/lib/interwork\libc.a(lib_a-gdtoa-gethex.o)
 .debug_pubnames
                0x00000c19       0x1f c:/mcbuilder/resources/tools/arm-elf/bin/../lib/gcc/arm-elf/4.2.2/../../../../arm-elf/lib/interwork\libc.a(lib_a-gdtoa-hexnan.o)

.debug_str      0x00000000     0x22c5
 .debug_str     0x00000000      0x431 c:/mcbuilder/resources/tools/arm-elf/bin/../lib/gcc/arm-elf/4.2.2/../../../../arm-elf/lib/interwork\libc.a(lib_a-atoi.o)
                                0x4bc (size before relaxing)
 .debug_str     0x00000431       0x99 c:/mcbuilder/resources/tools/arm-elf/bin/../lib/gcc/arm-elf/4.2.2/../../../../arm-elf/lib/interwork\libc.a(lib_a-ctype_.o)
                                 0xaa (size before relaxing)
 .debug_str     0x000004ca       0xbc c:/mcbuilder/resources/tools/arm-elf/bin/../lib/gcc/arm-elf/4.2.2/../../../../arm-elf/lib/interwork\libc.a(lib_a-memcpy.o)
                                 0xe8 (size before relaxing)
 .debug_str     0x00000586       0x57 c:/mcbuilder/resources/tools/arm-elf/bin/../lib/gcc/arm-elf/4.2.2/../../../../arm-elf/lib/interwork\libc.a(lib_a-memset.o)
                                0x13e (size before relaxing)
 .debug_str     0x000005dd       0xbd c:/mcbuilder/resources/tools/arm-elf/bin/../lib/gcc/arm-elf/4.2.2/../../../../arm-elf/lib/interwork\libc.a(lib_a-snprintf.o)
                                0x50c (size before relaxing)
 .debug_str     0x0000069a       0x4f c:/mcbuilder/resources/tools/arm-elf/bin/../lib/gcc/arm-elf/4.2.2/../../../../arm-elf/lib/interwork\libc.a(lib_a-sprintf.o)
                                0x4fd (size before relaxing)
 .debug_str     0x000006e9       0x54 c:/mcbuilder/resources/tools/arm-elf/bin/../lib/gcc/arm-elf/4.2.2/../../../../arm-elf/lib/interwork\libc.a(lib_a-sscanf.o)
                                0x509 (size before relaxing)
 .debug_str     0x0000073d       0x4e c:/mcbuilder/resources/tools/arm-elf/bin/../lib/gcc/arm-elf/4.2.2/../../../../arm-elf/lib/interwork\libc.a(lib_a-strcat.o)
                                0x12e (size before relaxing)
 .debug_str     0x0000078b       0x43 c:/mcbuilder/resources/tools/arm-elf/bin/../lib/gcc/arm-elf/4.2.2/../../../../arm-elf/lib/interwork\libc.a(lib_a-strchr.o)
                                0x135 (size before relaxing)
 .debug_str     0x000007ce       0x43 c:/mcbuilder/resources/tools/arm-elf/bin/../lib/gcc/arm-elf/4.2.2/../../../../arm-elf/lib/interwork\libc.a(lib_a-strcmp.o)
                                0x123 (size before relaxing)
 .debug_str     0x00000811       0x43 c:/mcbuilder/resources/tools/arm-elf/bin/../lib/gcc/arm-elf/4.2.2/../../../../arm-elf/lib/interwork\libc.a(lib_a-strcpy.o)
                                0x145 (size before relaxing)
 .debug_str     0x00000854       0x43 c:/mcbuilder/resources/tools/arm-elf/bin/../lib/gcc/arm-elf/4.2.2/../../../../arm-elf/lib/interwork\libc.a(lib_a-strlen.o)
                                0x13d (size before relaxing)
 .debug_str     0x00000897       0x45 c:/mcbuilder/resources/tools/arm-elf/bin/../lib/gcc/arm-elf/4.2.2/../../../../arm-elf/lib/interwork\libc.a(lib_a-strncmp.o)
                                0x12c (size before relaxing)
 .debug_str     0x000008dc       0x45 c:/mcbuilder/resources/tools/arm-elf/bin/../lib/gcc/arm-elf/4.2.2/../../../../arm-elf/lib/interwork\libc.a(lib_a-strncpy.o)
                                0x154 (size before relaxing)
 .debug_str     0x00000921       0x67 c:/mcbuilder/resources/tools/arm-elf/bin/../lib/gcc/arm-elf/4.2.2/../../../../arm-elf/lib/interwork\libc.a(lib_a-strtol.o)
                                0x4fe (size before relaxing)
 .debug_str     0x00000988      0x1a1 c:/mcbuilder/resources/tools/arm-elf/bin/../lib/gcc/arm-elf/4.2.2/../../../../arm-elf/lib/interwork\libc.a(lib_a-vfprintf.o)
                                0x6b4 (size before relaxing)
 .debug_str     0x00000b29      0x133 c:/mcbuilder/resources/tools/arm-elf/bin/../lib/gcc/arm-elf/4.2.2/../../../../arm-elf/lib/interwork\libc.a(lib_a-vfscanf.o)
                                0x651 (size before relaxing)
 .debug_str     0x00000c5c       0x47 c:/mcbuilder/resources/tools/arm-elf/bin/../lib/gcc/arm-elf/4.2.2/../../../../arm-elf/lib/interwork\libc.a(lib_a-wsetup.o)
                                0x4cc (size before relaxing)
 .debug_str     0x00000ca3       0xfd c:/mcbuilder/resources/tools/arm-elf/bin/../lib/gcc/arm-elf/4.2.2/../../../../arm-elf/lib/interwork\libc.a(lib_a-dtoa.o)
                                0x5c1 (size before relaxing)
 .debug_str     0x00000da0       0x66 c:/mcbuilder/resources/tools/arm-elf/bin/../lib/gcc/arm-elf/4.2.2/../../../../arm-elf/lib/interwork\libc.a(lib_a-fflush.o)
                                0x4f2 (size before relaxing)
 .debug_str     0x00000e06      0x103 c:/mcbuilder/resources/tools/arm-elf/bin/../lib/gcc/arm-elf/4.2.2/../../../../arm-elf/lib/interwork\libc.a(lib_a-findfp.o)
                                0x5b4 (size before relaxing)
 .debug_str     0x00000f09       0x6b c:/mcbuilder/resources/tools/arm-elf/bin/../lib/gcc/arm-elf/4.2.2/../../../../arm-elf/lib/interwork\libc.a(lib_a-fread.o)
                                0x50e (size before relaxing)
 .debug_str     0x00000f74      0x15c c:/mcbuilder/resources/tools/arm-elf/bin/../lib/gcc/arm-elf/4.2.2/../../../../arm-elf/lib/interwork\libc.a(lib_a-freer.o)
                                0x603 (size before relaxing)
 .debug_str     0x000010d0       0x67 c:/mcbuilder/resources/tools/arm-elf/bin/../lib/gcc/arm-elf/4.2.2/../../../../arm-elf/lib/interwork\libc.a(lib_a-fvwrite.o)
                                0x523 (size before relaxing)
 .debug_str     0x00001137       0x5f c:/mcbuilder/resources/tools/arm-elf/bin/../lib/gcc/arm-elf/4.2.2/../../../../arm-elf/lib/interwork\libc.a(lib_a-fwalk.o)
                                0x4f5 (size before relaxing)
 .debug_str     0x00001196       0x91 c:/mcbuilder/resources/tools/arm-elf/bin/../lib/gcc/arm-elf/4.2.2/../../../../arm-elf/lib/interwork\libc.a(lib_a-impure.o)
                                0x4da (size before relaxing)
 .debug_str     0x00001227       0x59 c:/mcbuilder/resources/tools/arm-elf/bin/../lib/gcc/arm-elf/4.2.2/../../../../arm-elf/lib/interwork\libc.a(lib_a-iswspace.o)
                                0x14b (size before relaxing)
 .debug_str     0x00001280      0x1cd c:/mcbuilder/resources/tools/arm-elf/bin/../lib/gcc/arm-elf/4.2.2/../../../../arm-elf/lib/interwork\libc.a(lib_a-locale.o)
                                0x669 (size before relaxing)
 .debug_str     0x0000144d      0x124 c:/mcbuilder/resources/tools/arm-elf/bin/../lib/gcc/arm-elf/4.2.2/../../../../arm-elf/lib/interwork\libc.a(lib_a-makebuf.o)
                                0x5c6 (size before relaxing)
 .debug_str     0x00001571       0xe9 c:/mcbuilder/resources/tools/arm-elf/bin/../lib/gcc/arm-elf/4.2.2/../../../../arm-elf/lib/interwork\libc.a(lib_a-mallocr.o)
                                0x6b1 (size before relaxing)
 .debug_str     0x0000165a       0x57 c:/mcbuilder/resources/tools/arm-elf/bin/../lib/gcc/arm-elf/4.2.2/../../../../arm-elf/lib/interwork\libc.a(lib_a-mbrtowc.o)
                                0x4f1 (size before relaxing)
 .debug_str     0x000016b1       0x4e c:/mcbuilder/resources/tools/arm-elf/bin/../lib/gcc/arm-elf/4.2.2/../../../../arm-elf/lib/interwork\libc.a(lib_a-mbtowc_r.o)
                                0x4e2 (size before relaxing)
 .debug_str     0x000016ff       0x51 c:/mcbuilder/resources/tools/arm-elf/bin/../lib/gcc/arm-elf/4.2.2/../../../../arm-elf/lib/interwork\libc.a(lib_a-memchr.o)
                                0x14b (size before relaxing)
 .debug_str     0x00001750       0x4e c:/mcbuilder/resources/tools/arm-elf/bin/../lib/gcc/arm-elf/4.2.2/../../../../arm-elf/lib/interwork\libc.a(lib_a-memmove.o)
                                0x15d (size before relaxing)
 .debug_str     0x0000179e       0x6e c:/mcbuilder/resources/tools/arm-elf/bin/../lib/gcc/arm-elf/4.2.2/../../../../arm-elf/lib/interwork\libc.a(lib_a-mlock.o)
                                0x4e3 (size before relaxing)
 .debug_str     0x0000180c       0xf9 c:/mcbuilder/resources/tools/arm-elf/bin/../lib/gcc/arm-elf/4.2.2/../../../../arm-elf/lib/interwork\libc.a(lib_a-mprec.o)
                                0x5ce (size before relaxing)
 .debug_str     0x00001905       0x59 c:/mcbuilder/resources/tools/arm-elf/bin/../lib/gcc/arm-elf/4.2.2/../../../../arm-elf/lib/interwork\libc.a(lib_a-reallocr.o)
                                0x583 (size before relaxing)
 .debug_str     0x0000195e       0x4e c:/mcbuilder/resources/tools/arm-elf/bin/../lib/gcc/arm-elf/4.2.2/../../../../arm-elf/lib/interwork\libc.a(lib_a-refill.o)
                                0x4da (size before relaxing)
 .debug_str     0x000019ac       0xbe c:/mcbuilder/resources/tools/arm-elf/bin/../lib/gcc/arm-elf/4.2.2/../../../../arm-elf/lib/interwork\libc.a(lib_a-s_isinfd.o)
                                0x17d (size before relaxing)
 .debug_str     0x00001a6a       0x47 c:/mcbuilder/resources/tools/arm-elf/bin/../lib/gcc/arm-elf/4.2.2/../../../../arm-elf/lib/interwork\libc.a(lib_a-s_isnand.o)
                                0x17d (size before relaxing)
 .debug_str     0x00001ab1       0x50 c:/mcbuilder/resources/tools/arm-elf/bin/../lib/gcc/arm-elf/4.2.2/../../../../arm-elf/lib/interwork\libc.a(lib_a-sccl.o)
                                0x12f (size before relaxing)
 .debug_str     0x00001b01       0x41 c:/mcbuilder/resources/tools/arm-elf/bin/../lib/gcc/arm-elf/4.2.2/../../../../arm-elf/lib/interwork\libc.a(lib_a-sf_nan.o)
                                0x141 (size before relaxing)
 .debug_str     0x00001b42       0x63 c:/mcbuilder/resources/tools/arm-elf/bin/../lib/gcc/arm-elf/4.2.2/../../../../arm-elf/lib/interwork\libc.a(lib_a-stdio.o)
                                0x4f1 (size before relaxing)
 .debug_str     0x00001ba5      0x1bf c:/mcbuilder/resources/tools/arm-elf/bin/../lib/gcc/arm-elf/4.2.2/../../../../arm-elf/lib/interwork\libc.a(lib_a-strtod.o)
                                0x6ab (size before relaxing)
 .debug_str     0x00001d64       0x50 c:/mcbuilder/resources/tools/arm-elf/bin/../lib/gcc/arm-elf/4.2.2/../../../../arm-elf/lib/interwork\libc.a(lib_a-strtoul.o)
                                0x501 (size before relaxing)
 .debug_str     0x00001db4      0x29e c:/mcbuilder/resources/tools/arm-elf/bin/../lib/gcc/arm-elf/4.2.2/../../../../arm-elf/lib/interwork\libc.a(lib_a-syscalls.o)
                                0x7ff (size before relaxing)
 .debug_str     0x00002052       0x56 c:/mcbuilder/resources/tools/arm-elf/bin/../lib/gcc/arm-elf/4.2.2/../../../../arm-elf/lib/interwork\libc.a(lib_a-ungetc.o)
                                0x4e0 (size before relaxing)
 .debug_str     0x000020a8       0x19 c:/mcbuilder/resources/tools/arm-elf/bin/../lib/gcc/arm-elf/4.2.2/../../../../arm-elf/lib/interwork\libc.a(lib_a-callocr.o)
                                0x502 (size before relaxing)
 .debug_str     0x000020c1       0x8c c:/mcbuilder/resources/tools/arm-elf/bin/../lib/gcc/arm-elf/4.2.2/../../../../arm-elf/lib/interwork\libc.a(lib_a-errno.o)
                                0x4c2 (size before relaxing)
 .debug_str     0x0000214d       0x4c c:/mcbuilder/resources/tools/arm-elf/bin/../lib/gcc/arm-elf/4.2.2/../../../../arm-elf/lib/interwork\libc.a(lib_a-fclose.o)
                                0x4d6 (size before relaxing)
 .debug_str     0x00002199       0xd9 c:/mcbuilder/resources/tools/arm-elf/bin/../lib/gcc/arm-elf/4.2.2/../../../../arm-elf/lib/interwork\libc.a(lib_a-gdtoa-gethex.o)
                                0x680 (size before relaxing)
 .debug_str     0x00002272       0x53 c:/mcbuilder/resources/tools/arm-elf/bin/../lib/gcc/arm-elf/4.2.2/../../../../arm-elf/lib/interwork\libc.a(lib_a-gdtoa-hexnan.o)
                                0x259 (size before relaxing)

.debug_ranges   0x00000000      0x608
 .debug_ranges  0x00000000      0x118 c:/mcbuilder/resources/tools/arm-elf/bin/../lib/gcc/arm-elf/4.2.2/../../../../arm-elf/lib/interwork\libc.a(lib_a-vfprintf.o)
 .debug_ranges  0x00000118       0xd8 c:/mcbuilder/resources/tools/arm-elf/bin/../lib/gcc/arm-elf/4.2.2/../../../../arm-elf/lib/interwork\libc.a(lib_a-vfscanf.o)
 .debug_ranges  0x000001f0       0x18 c:/mcbuilder/resources/tools/arm-elf/bin/../lib/gcc/arm-elf/4.2.2/../../../../arm-elf/lib/interwork\libc.a(lib_a-fflush.o)
 .debug_ranges  0x00000208       0x18 c:/mcbuilder/resources/tools/arm-elf/bin/../lib/gcc/arm-elf/4.2.2/../../../../arm-elf/lib/interwork\libc.a(lib_a-fread.o)
 .debug_ranges  0x00000220       0x20 c:/mcbuilder/resources/tools/arm-elf/bin/../lib/gcc/arm-elf/4.2.2/../../../../arm-elf/lib/interwork\libc.a(lib_a-fvwrite.o)
 .debug_ranges  0x00000240       0x40 c:/mcbuilder/resources/tools/arm-elf/bin/../lib/gcc/arm-elf/4.2.2/../../../../arm-elf/lib/interwork\libc.a(lib_a-fwalk.o)
 .debug_ranges  0x00000280       0x60 c:/mcbuilder/resources/tools/arm-elf/bin/../lib/gcc/arm-elf/4.2.2/../../../../arm-elf/lib/interwork\libc.a(lib_a-mallocr.o)
 .debug_ranges  0x000002e0       0xe8 c:/mcbuilder/resources/tools/arm-elf/bin/../lib/gcc/arm-elf/4.2.2/../../../../arm-elf/lib/interwork\libc.a(lib_a-reallocr.o)
 .debug_ranges  0x000003c8       0x40 c:/mcbuilder/resources/tools/arm-elf/bin/../lib/gcc/arm-elf/4.2.2/../../../../arm-elf/lib/interwork\libc.a(lib_a-strtod.o)
 .debug_ranges  0x00000408      0x178 c:/mcbuilder/resources/tools/arm-elf/bin/../lib/gcc/arm-elf/4.2.2/../../../../arm-elf/lib/interwork\libc.a(lib_a-syscalls.o)
 .debug_ranges  0x00000580       0x30 c:/mcbuilder/resources/tools/arm-elf/bin/../lib/gcc/arm-elf/4.2.2/../../../../arm-elf/lib/interwork\libc.a(lib_a-callocr.o)
 .debug_ranges  0x000005b0       0x58 c:/mcbuilder/resources/tools/arm-elf/bin/../lib/gcc/arm-elf/4.2.2/../../../../arm-elf/lib/interwork\libc.a(lib_a-gdtoa-gethex.o)
